; Listing generated by Microsoft (R) Optimizing Compiler Version 16.00.30319.01 

; Generated by VC++ for Common Language Runtime
.file "C:\Users\Ruli\Documents\Visual Studio 2010\Projects\Hitungan\Hitungan\Hitungan.cpp"
.global	?ara@@$$Q3PAHA					; ara
.global	?arb@@$$Q3PAHA					; arb
.global	?arc@@$$Q3PAHA					; arc
.global	?bstart@@$$Q3_NA				; bstart
.global	?bMode@@$$Q3HA					; bMode
.global	?has_denorm@_Num_base@std@@$$Q2W4float_denorm_style@2@B ; std::_Num_base::has_denorm
.global	?has_denorm_loss@_Num_base@std@@$$Q2_NB		; std::_Num_base::has_denorm_loss
.global	?has_infinity@_Num_base@std@@$$Q2_NB		; std::_Num_base::has_infinity
.global	?has_quiet_NaN@_Num_base@std@@$$Q2_NB		; std::_Num_base::has_quiet_NaN
.global	?has_signaling_NaN@_Num_base@std@@$$Q2_NB	; std::_Num_base::has_signaling_NaN
.global	?is_bounded@_Num_base@std@@$$Q2_NB		; std::_Num_base::is_bounded
.global	?is_exact@_Num_base@std@@$$Q2_NB		; std::_Num_base::is_exact
.global	?is_iec559@_Num_base@std@@$$Q2_NB		; std::_Num_base::is_iec559
.global	?is_integer@_Num_base@std@@$$Q2_NB		; std::_Num_base::is_integer
.global	?is_modulo@_Num_base@std@@$$Q2_NB		; std::_Num_base::is_modulo
.global	?is_signed@_Num_base@std@@$$Q2_NB		; std::_Num_base::is_signed
.global	?is_specialized@_Num_base@std@@$$Q2_NB		; std::_Num_base::is_specialized
.global	?tinyness_before@_Num_base@std@@$$Q2_NB		; std::_Num_base::tinyness_before
.global	?traps@_Num_base@std@@$$Q2_NB			; std::_Num_base::traps
.global	?round_style@_Num_base@std@@$$Q2W4float_round_style@2@B ; std::_Num_base::round_style
.global	?digits@_Num_base@std@@$$Q2HB			; std::_Num_base::digits
.global	?digits10@_Num_base@std@@$$Q2HB			; std::_Num_base::digits10
.global	?max_digits10@_Num_base@std@@$$Q2HB		; std::_Num_base::max_digits10
.global	?max_exponent@_Num_base@std@@$$Q2HB		; std::_Num_base::max_exponent
.global	?max_exponent10@_Num_base@std@@$$Q2HB		; std::_Num_base::max_exponent10
.global	?min_exponent@_Num_base@std@@$$Q2HB		; std::_Num_base::min_exponent
.global	?min_exponent10@_Num_base@std@@$$Q2HB		; std::_Num_base::min_exponent10
.global	?radix@_Num_base@std@@$$Q2HB			; std::_Num_base::radix
.global	?is_bounded@_Num_int_base@std@@$$Q2_NB		; std::_Num_int_base::is_bounded
.global	?is_exact@_Num_int_base@std@@$$Q2_NB		; std::_Num_int_base::is_exact
.global	?is_integer@_Num_int_base@std@@$$Q2_NB		; std::_Num_int_base::is_integer
.global	?is_modulo@_Num_int_base@std@@$$Q2_NB		; std::_Num_int_base::is_modulo
.global	?is_specialized@_Num_int_base@std@@$$Q2_NB	; std::_Num_int_base::is_specialized
.global	?radix@_Num_int_base@std@@$$Q2HB		; std::_Num_int_base::radix
.global	?has_denorm@_Num_float_base@std@@$$Q2W4float_denorm_style@2@B ; std::_Num_float_base::has_denorm
.global	?has_denorm_loss@_Num_float_base@std@@$$Q2_NB	; std::_Num_float_base::has_denorm_loss
.global	?has_infinity@_Num_float_base@std@@$$Q2_NB	; std::_Num_float_base::has_infinity
.global	?has_quiet_NaN@_Num_float_base@std@@$$Q2_NB	; std::_Num_float_base::has_quiet_NaN
.global	?has_signaling_NaN@_Num_float_base@std@@$$Q2_NB	; std::_Num_float_base::has_signaling_NaN
.global	?is_bounded@_Num_float_base@std@@$$Q2_NB	; std::_Num_float_base::is_bounded
.global	?is_exact@_Num_float_base@std@@$$Q2_NB		; std::_Num_float_base::is_exact
.global	?is_iec559@_Num_float_base@std@@$$Q2_NB		; std::_Num_float_base::is_iec559
.global	?is_integer@_Num_float_base@std@@$$Q2_NB	; std::_Num_float_base::is_integer
.global	?is_modulo@_Num_float_base@std@@$$Q2_NB		; std::_Num_float_base::is_modulo
.global	?is_signed@_Num_float_base@std@@$$Q2_NB		; std::_Num_float_base::is_signed
.global	?is_specialized@_Num_float_base@std@@$$Q2_NB	; std::_Num_float_base::is_specialized
.global	?tinyness_before@_Num_float_base@std@@$$Q2_NB	; std::_Num_float_base::tinyness_before
.global	?traps@_Num_float_base@std@@$$Q2_NB		; std::_Num_float_base::traps
.global	?round_style@_Num_float_base@std@@$$Q2W4float_round_style@2@B ; std::_Num_float_base::round_style
.global	?radix@_Num_float_base@std@@$$Q2HB		; std::_Num_float_base::radix
.global	?is_signed@?$numeric_limits@D@std@@$$Q2_NB	; std::numeric_limits<char>::is_signed
.global	?digits@?$numeric_limits@D@std@@$$Q2HB		; std::numeric_limits<char>::digits
.global	?digits10@?$numeric_limits@D@std@@$$Q2HB	; std::numeric_limits<char>::digits10
.global	?max_digits10@?$numeric_limits@D@std@@$$Q2HB	; std::numeric_limits<char>::max_digits10
.global	?is_signed@?$numeric_limits@_W@std@@$$Q2_NB	; std::numeric_limits<wchar_t>::is_signed
.global	?digits@?$numeric_limits@_W@std@@$$Q2HB		; std::numeric_limits<wchar_t>::digits
.global	?digits10@?$numeric_limits@_W@std@@$$Q2HB	; std::numeric_limits<wchar_t>::digits10
.global	?max_digits10@?$numeric_limits@_W@std@@$$Q2HB	; std::numeric_limits<wchar_t>::max_digits10
.global	?is_modulo@?$numeric_limits@_N@std@@$$Q2_NB	; std::numeric_limits<bool>::is_modulo
.global	?is_signed@?$numeric_limits@_N@std@@$$Q2_NB	; std::numeric_limits<bool>::is_signed
.global	?digits@?$numeric_limits@_N@std@@$$Q2HB		; std::numeric_limits<bool>::digits
.global	?digits10@?$numeric_limits@_N@std@@$$Q2HB	; std::numeric_limits<bool>::digits10
.global	?max_digits10@?$numeric_limits@_N@std@@$$Q2HB	; std::numeric_limits<bool>::max_digits10
.global	?is_signed@?$numeric_limits@C@std@@$$Q2_NB	; std::numeric_limits<signed char>::is_signed
.global	?digits@?$numeric_limits@C@std@@$$Q2HB		; std::numeric_limits<signed char>::digits
.global	?digits10@?$numeric_limits@C@std@@$$Q2HB	; std::numeric_limits<signed char>::digits10
.global	?max_digits10@?$numeric_limits@C@std@@$$Q2HB	; std::numeric_limits<signed char>::max_digits10
.global	?is_signed@?$numeric_limits@E@std@@$$Q2_NB	; std::numeric_limits<unsigned char>::is_signed
.global	?digits@?$numeric_limits@E@std@@$$Q2HB		; std::numeric_limits<unsigned char>::digits
.global	?digits10@?$numeric_limits@E@std@@$$Q2HB	; std::numeric_limits<unsigned char>::digits10
.global	?max_digits10@?$numeric_limits@E@std@@$$Q2HB	; std::numeric_limits<unsigned char>::max_digits10
.global	?is_signed@?$numeric_limits@F@std@@$$Q2_NB	; std::numeric_limits<short>::is_signed
.global	?digits@?$numeric_limits@F@std@@$$Q2HB		; std::numeric_limits<short>::digits
.global	?digits10@?$numeric_limits@F@std@@$$Q2HB	; std::numeric_limits<short>::digits10
.global	?max_digits10@?$numeric_limits@F@std@@$$Q2HB	; std::numeric_limits<short>::max_digits10
.global	?is_signed@?$numeric_limits@G@std@@$$Q2_NB	; std::numeric_limits<unsigned short>::is_signed
.global	?digits@?$numeric_limits@G@std@@$$Q2HB		; std::numeric_limits<unsigned short>::digits
.global	?digits10@?$numeric_limits@G@std@@$$Q2HB	; std::numeric_limits<unsigned short>::digits10
.global	?max_digits10@?$numeric_limits@G@std@@$$Q2HB	; std::numeric_limits<unsigned short>::max_digits10
.global	?is_signed@?$numeric_limits@H@std@@$$Q2_NB	; std::numeric_limits<int>::is_signed
.global	?digits@?$numeric_limits@H@std@@$$Q2HB		; std::numeric_limits<int>::digits
.global	?digits10@?$numeric_limits@H@std@@$$Q2HB	; std::numeric_limits<int>::digits10
.global	?max_digits10@?$numeric_limits@H@std@@$$Q2HB	; std::numeric_limits<int>::max_digits10
.global	?is_signed@?$numeric_limits@I@std@@$$Q2_NB	; std::numeric_limits<unsigned int>::is_signed
.global	?digits@?$numeric_limits@I@std@@$$Q2HB		; std::numeric_limits<unsigned int>::digits
.global	?digits10@?$numeric_limits@I@std@@$$Q2HB	; std::numeric_limits<unsigned int>::digits10
.global	?max_digits10@?$numeric_limits@I@std@@$$Q2HB	; std::numeric_limits<unsigned int>::max_digits10
.global	?is_signed@?$numeric_limits@J@std@@$$Q2_NB	; std::numeric_limits<long>::is_signed
.global	?digits@?$numeric_limits@J@std@@$$Q2HB		; std::numeric_limits<long>::digits
.global	?digits10@?$numeric_limits@J@std@@$$Q2HB	; std::numeric_limits<long>::digits10
.global	?max_digits10@?$numeric_limits@J@std@@$$Q2HB	; std::numeric_limits<long>::max_digits10
.global	?is_signed@?$numeric_limits@K@std@@$$Q2_NB	; std::numeric_limits<unsigned long>::is_signed
.global	?digits@?$numeric_limits@K@std@@$$Q2HB		; std::numeric_limits<unsigned long>::digits
.global	?digits10@?$numeric_limits@K@std@@$$Q2HB	; std::numeric_limits<unsigned long>::digits10
.global	?max_digits10@?$numeric_limits@K@std@@$$Q2HB	; std::numeric_limits<unsigned long>::max_digits10
.global	?is_signed@?$numeric_limits@_J@std@@$$Q2_NB	; std::numeric_limits<__int64>::is_signed
.global	?digits@?$numeric_limits@_J@std@@$$Q2HB		; std::numeric_limits<__int64>::digits
.global	?digits10@?$numeric_limits@_J@std@@$$Q2HB	; std::numeric_limits<__int64>::digits10
.global	?max_digits10@?$numeric_limits@_J@std@@$$Q2HB	; std::numeric_limits<__int64>::max_digits10
.global	?is_signed@?$numeric_limits@_K@std@@$$Q2_NB	; std::numeric_limits<unsigned __int64>::is_signed
.global	?digits@?$numeric_limits@_K@std@@$$Q2HB		; std::numeric_limits<unsigned __int64>::digits
.global	?digits10@?$numeric_limits@_K@std@@$$Q2HB	; std::numeric_limits<unsigned __int64>::digits10
.global	?max_digits10@?$numeric_limits@_K@std@@$$Q2HB	; std::numeric_limits<unsigned __int64>::max_digits10
.global	?digits@?$numeric_limits@M@std@@$$Q2HB		; std::numeric_limits<float>::digits
.global	?digits10@?$numeric_limits@M@std@@$$Q2HB	; std::numeric_limits<float>::digits10
.global	?max_digits10@?$numeric_limits@M@std@@$$Q2HB	; std::numeric_limits<float>::max_digits10
.global	?max_exponent@?$numeric_limits@M@std@@$$Q2HB	; std::numeric_limits<float>::max_exponent
.global	?max_exponent10@?$numeric_limits@M@std@@$$Q2HB	; std::numeric_limits<float>::max_exponent10
.global	?min_exponent@?$numeric_limits@M@std@@$$Q2HB	; std::numeric_limits<float>::min_exponent
.global	?min_exponent10@?$numeric_limits@M@std@@$$Q2HB	; std::numeric_limits<float>::min_exponent10
.global	?digits@?$numeric_limits@N@std@@$$Q2HB		; std::numeric_limits<double>::digits
.global	?digits10@?$numeric_limits@N@std@@$$Q2HB	; std::numeric_limits<double>::digits10
.global	?max_digits10@?$numeric_limits@N@std@@$$Q2HB	; std::numeric_limits<double>::max_digits10
.global	?max_exponent@?$numeric_limits@N@std@@$$Q2HB	; std::numeric_limits<double>::max_exponent
.global	?max_exponent10@?$numeric_limits@N@std@@$$Q2HB	; std::numeric_limits<double>::max_exponent10
.global	?min_exponent@?$numeric_limits@N@std@@$$Q2HB	; std::numeric_limits<double>::min_exponent
.global	?min_exponent10@?$numeric_limits@N@std@@$$Q2HB	; std::numeric_limits<double>::min_exponent10
.global	?digits@?$numeric_limits@O@std@@$$Q2HB		; std::numeric_limits<long double>::digits
.global	?digits10@?$numeric_limits@O@std@@$$Q2HB	; std::numeric_limits<long double>::digits10
.global	?max_digits10@?$numeric_limits@O@std@@$$Q2HB	; std::numeric_limits<long double>::max_digits10
.global	?max_exponent@?$numeric_limits@O@std@@$$Q2HB	; std::numeric_limits<long double>::max_exponent
.global	?max_exponent10@?$numeric_limits@O@std@@$$Q2HB	; std::numeric_limits<long double>::max_exponent10
.global	?min_exponent@?$numeric_limits@O@std@@$$Q2HB	; std::numeric_limits<long double>::min_exponent
.global	?min_exponent10@?$numeric_limits@O@std@@$$Q2HB	; std::numeric_limits<long double>::min_exponent10
.global	?value@?$integral_constant@_N$0A@@tr1@std@@$$Q2_NB ; std::tr1::integral_constant<bool,0>::value
.global	?value@?$integral_constant@_N$00@tr1@std@@$$Q2_NB ; std::tr1::integral_constant<bool,1>::value
.global	?value@?$integral_constant@I$0A@@tr1@std@@$$Q2IB ; std::tr1::integral_constant<unsigned int,0>::value
.global	?_Rank@?$_Arithmetic_traits@_N@std@@$$Q2HB	; std::_Arithmetic_traits<bool>::_Rank
.global	?_Rank@?$_Arithmetic_traits@D@std@@$$Q2HB	; std::_Arithmetic_traits<char>::_Rank
.global	?_Rank@?$_Arithmetic_traits@C@std@@$$Q2HB	; std::_Arithmetic_traits<signed char>::_Rank
.global	?_Rank@?$_Arithmetic_traits@E@std@@$$Q2HB	; std::_Arithmetic_traits<unsigned char>::_Rank
.global	?_Rank@?$_Arithmetic_traits@F@std@@$$Q2HB	; std::_Arithmetic_traits<short>::_Rank
.global	?_Rank@?$_Arithmetic_traits@G@std@@$$Q2HB	; std::_Arithmetic_traits<unsigned short>::_Rank
.global	?_Rank@?$_Arithmetic_traits@H@std@@$$Q2HB	; std::_Arithmetic_traits<int>::_Rank
.global	?_Rank@?$_Arithmetic_traits@I@std@@$$Q2HB	; std::_Arithmetic_traits<unsigned int>::_Rank
.global	?_Rank@?$_Arithmetic_traits@J@std@@$$Q2HB	; std::_Arithmetic_traits<long>::_Rank
.global	?_Rank@?$_Arithmetic_traits@K@std@@$$Q2HB	; std::_Arithmetic_traits<unsigned long>::_Rank
.global	?_Rank@?$_Arithmetic_traits@_J@std@@$$Q2HB	; std::_Arithmetic_traits<__int64>::_Rank
.global	?_Rank@?$_Arithmetic_traits@_K@std@@$$Q2HB	; std::_Arithmetic_traits<unsigned __int64>::_Rank
.global	?_Rank@?$_Arithmetic_traits@M@std@@$$Q2HB	; std::_Arithmetic_traits<float>::_Rank
.global	?_Rank@?$_Arithmetic_traits@N@std@@$$Q2HB	; std::_Arithmetic_traits<double>::_Rank
.global	?_Rank@?$_Arithmetic_traits@O@std@@$$Q2HB	; std::_Arithmetic_traits<long double>::_Rank
.global	?collate@?$_Locbase@H@std@@2HB			; std::_Locbase<int>::collate
.global	?ctype@?$_Locbase@H@std@@2HB			; std::_Locbase<int>::ctype
.global	?monetary@?$_Locbase@H@std@@2HB			; std::_Locbase<int>::monetary
.global	?numeric@?$_Locbase@H@std@@2HB			; std::_Locbase<int>::numeric
.global	?time@?$_Locbase@H@std@@2HB			; std::_Locbase<int>::time
.global	?messages@?$_Locbase@H@std@@2HB			; std::_Locbase<int>::messages
.global	?all@?$_Locbase@H@std@@2HB			; std::_Locbase<int>::all
.global	?none@?$_Locbase@H@std@@2HB			; std::_Locbase<int>::none
.global	?table_size@?$ctype@D@std@@2IB			; std::ctype<char>::table_size
.global	?skipws@?$_Iosb@H@std@@$$Q2W4_Fmtflags@12@B	; std::_Iosb<int>::skipws
.global	?unitbuf@?$_Iosb@H@std@@$$Q2W4_Fmtflags@12@B	; std::_Iosb<int>::unitbuf
.global	?uppercase@?$_Iosb@H@std@@$$Q2W4_Fmtflags@12@B	; std::_Iosb<int>::uppercase
.global	?showbase@?$_Iosb@H@std@@$$Q2W4_Fmtflags@12@B	; std::_Iosb<int>::showbase
.global	?showpoint@?$_Iosb@H@std@@$$Q2W4_Fmtflags@12@B	; std::_Iosb<int>::showpoint
.global	?showpos@?$_Iosb@H@std@@$$Q2W4_Fmtflags@12@B	; std::_Iosb<int>::showpos
.global	?left@?$_Iosb@H@std@@$$Q2W4_Fmtflags@12@B	; std::_Iosb<int>::left
.global	?right@?$_Iosb@H@std@@$$Q2W4_Fmtflags@12@B	; std::_Iosb<int>::right
.global	?internal@?$_Iosb@H@std@@$$Q2W4_Fmtflags@12@B	; std::_Iosb<int>::internal
.global	?dec@?$_Iosb@H@std@@$$Q2W4_Fmtflags@12@B	; std::_Iosb<int>::dec
.global	?oct@?$_Iosb@H@std@@$$Q2W4_Fmtflags@12@B	; std::_Iosb<int>::oct
.global	?hex@?$_Iosb@H@std@@$$Q2W4_Fmtflags@12@B	; std::_Iosb<int>::hex
.global	?scientific@?$_Iosb@H@std@@$$Q2W4_Fmtflags@12@B	; std::_Iosb<int>::scientific
.global	?fixed@?$_Iosb@H@std@@$$Q2W4_Fmtflags@12@B	; std::_Iosb<int>::fixed
.global	?hexfloat@?$_Iosb@H@std@@$$Q2W4_Fmtflags@12@B	; std::_Iosb<int>::hexfloat
.global	?boolalpha@?$_Iosb@H@std@@$$Q2W4_Fmtflags@12@B	; std::_Iosb<int>::boolalpha
.global	?_Stdio@?$_Iosb@H@std@@$$Q2W4_Fmtflags@12@B	; std::_Iosb<int>::_Stdio
.global	?adjustfield@?$_Iosb@H@std@@$$Q2W4_Fmtflags@12@B ; std::_Iosb<int>::adjustfield
.global	?basefield@?$_Iosb@H@std@@$$Q2W4_Fmtflags@12@B	; std::_Iosb<int>::basefield
.global	?floatfield@?$_Iosb@H@std@@$$Q2W4_Fmtflags@12@B	; std::_Iosb<int>::floatfield
.global	?goodbit@?$_Iosb@H@std@@$$Q2W4_Iostate@12@B	; std::_Iosb<int>::goodbit
.global	?eofbit@?$_Iosb@H@std@@$$Q2W4_Iostate@12@B	; std::_Iosb<int>::eofbit
.global	?failbit@?$_Iosb@H@std@@$$Q2W4_Iostate@12@B	; std::_Iosb<int>::failbit
.global	?badbit@?$_Iosb@H@std@@$$Q2W4_Iostate@12@B	; std::_Iosb<int>::badbit
.global	?_Hardfail@?$_Iosb@H@std@@$$Q2W4_Iostate@12@B	; std::_Iosb<int>::_Hardfail
.global	?in@?$_Iosb@H@std@@$$Q2W4_Openmode@12@B		; std::_Iosb<int>::in
.global	?out@?$_Iosb@H@std@@$$Q2W4_Openmode@12@B	; std::_Iosb<int>::out
.global	?ate@?$_Iosb@H@std@@$$Q2W4_Openmode@12@B	; std::_Iosb<int>::ate
.global	?app@?$_Iosb@H@std@@$$Q2W4_Openmode@12@B	; std::_Iosb<int>::app
.global	?trunc@?$_Iosb@H@std@@$$Q2W4_Openmode@12@B	; std::_Iosb<int>::trunc
.global	?_Nocreate@?$_Iosb@H@std@@$$Q2W4_Openmode@12@B	; std::_Iosb<int>::_Nocreate
.global	?_Noreplace@?$_Iosb@H@std@@$$Q2W4_Openmode@12@B	; std::_Iosb<int>::_Noreplace
.global	?binary@?$_Iosb@H@std@@$$Q2W4_Openmode@12@B	; std::_Iosb<int>::binary
.global	?beg@?$_Iosb@H@std@@$$Q2W4_Seekdir@12@B		; std::_Iosb<int>::beg
.global	?cur@?$_Iosb@H@std@@$$Q2W4_Seekdir@12@B		; std::_Iosb<int>::cur
.global	?end@?$_Iosb@H@std@@$$Q2W4_Seekdir@12@B		; std::_Iosb<int>::end
.global	?word_size@?$mersenne_twister@K$0CA@$0CHA@$0BIN@$0BP@$0JJAILANP@$0L@$06$0JNCMFGIA@$0P@$0OPMGAAAA@$0BC@@tr1@std@@$$Q2HB ; std::tr1::mersenne_twister<unsigned long,32,624,397,31,2567483615,11,7,2636928640,15,4022730752,18>::word_size
.global	?state_size@?$mersenne_twister@K$0CA@$0CHA@$0BIN@$0BP@$0JJAILANP@$0L@$06$0JNCMFGIA@$0P@$0OPMGAAAA@$0BC@@tr1@std@@$$Q2HB ; std::tr1::mersenne_twister<unsigned long,32,624,397,31,2567483615,11,7,2636928640,15,4022730752,18>::state_size
.global	?shift_size@?$mersenne_twister@K$0CA@$0CHA@$0BIN@$0BP@$0JJAILANP@$0L@$06$0JNCMFGIA@$0P@$0OPMGAAAA@$0BC@@tr1@std@@$$Q2HB ; std::tr1::mersenne_twister<unsigned long,32,624,397,31,2567483615,11,7,2636928640,15,4022730752,18>::shift_size
.global	?mask_bits@?$mersenne_twister@K$0CA@$0CHA@$0BIN@$0BP@$0JJAILANP@$0L@$06$0JNCMFGIA@$0P@$0OPMGAAAA@$0BC@@tr1@std@@$$Q2HB ; std::tr1::mersenne_twister<unsigned long,32,624,397,31,2567483615,11,7,2636928640,15,4022730752,18>::mask_bits
.global	?parameter_a@?$mersenne_twister@K$0CA@$0CHA@$0BIN@$0BP@$0JJAILANP@$0L@$06$0JNCMFGIA@$0P@$0OPMGAAAA@$0BC@@tr1@std@@$$Q2KB ; std::tr1::mersenne_twister<unsigned long,32,624,397,31,2567483615,11,7,2636928640,15,4022730752,18>::parameter_a
.global	?output_u@?$mersenne_twister@K$0CA@$0CHA@$0BIN@$0BP@$0JJAILANP@$0L@$06$0JNCMFGIA@$0P@$0OPMGAAAA@$0BC@@tr1@std@@$$Q2HB ; std::tr1::mersenne_twister<unsigned long,32,624,397,31,2567483615,11,7,2636928640,15,4022730752,18>::output_u
.global	?output_s@?$mersenne_twister@K$0CA@$0CHA@$0BIN@$0BP@$0JJAILANP@$0L@$06$0JNCMFGIA@$0P@$0OPMGAAAA@$0BC@@tr1@std@@$$Q2HB ; std::tr1::mersenne_twister<unsigned long,32,624,397,31,2567483615,11,7,2636928640,15,4022730752,18>::output_s
.global	?output_b@?$mersenne_twister@K$0CA@$0CHA@$0BIN@$0BP@$0JJAILANP@$0L@$06$0JNCMFGIA@$0P@$0OPMGAAAA@$0BC@@tr1@std@@$$Q2KB ; std::tr1::mersenne_twister<unsigned long,32,624,397,31,2567483615,11,7,2636928640,15,4022730752,18>::output_b
.global	?output_t@?$mersenne_twister@K$0CA@$0CHA@$0BIN@$0BP@$0JJAILANP@$0L@$06$0JNCMFGIA@$0P@$0OPMGAAAA@$0BC@@tr1@std@@$$Q2HB ; std::tr1::mersenne_twister<unsigned long,32,624,397,31,2567483615,11,7,2636928640,15,4022730752,18>::output_t
.global	?output_c@?$mersenne_twister@K$0CA@$0CHA@$0BIN@$0BP@$0JJAILANP@$0L@$06$0JNCMFGIA@$0P@$0OPMGAAAA@$0BC@@tr1@std@@$$Q2KB ; std::tr1::mersenne_twister<unsigned long,32,624,397,31,2567483615,11,7,2636928640,15,4022730752,18>::output_c
.global	?output_l@?$mersenne_twister@K$0CA@$0CHA@$0BIN@$0BP@$0JJAILANP@$0L@$06$0JNCMFGIA@$0P@$0OPMGAAAA@$0BC@@tr1@std@@$$Q2HB ; std::tr1::mersenne_twister<unsigned long,32,624,397,31,2567483615,11,7,2636928640,15,4022730752,18>::output_l
.global	?default_seed@?$mersenne_twister@K$0CA@$0CHA@$0BIN@$0BP@$0JJAILANP@$0L@$06$0JNCMFGIA@$0P@$0OPMGAAAA@$0BC@@tr1@std@@$$Q2KB ; std::tr1::mersenne_twister<unsigned long,32,624,397,31,2567483615,11,7,2636928640,15,4022730752,18>::default_seed
.global	?_WMSK@?$mersenne_twister@K$0CA@$0CHA@$0BIN@$0BP@$0JJAILANP@$0L@$06$0JNCMFGIA@$0P@$0OPMGAAAA@$0BC@@tr1@std@@$$Q0KB ; std::tr1::mersenne_twister<unsigned long,32,624,397,31,2567483615,11,7,2636928640,15,4022730752,18>::_WMSK
.global	?_HMSK@?$mersenne_twister@K$0CA@$0CHA@$0BIN@$0BP@$0JJAILANP@$0L@$06$0JNCMFGIA@$0P@$0OPMGAAAA@$0BC@@tr1@std@@$$Q0KB ; std::tr1::mersenne_twister<unsigned long,32,624,397,31,2567483615,11,7,2636928640,15,4022730752,18>::_HMSK
.global	?_LMSK@?$mersenne_twister@K$0CA@$0CHA@$0BIN@$0BP@$0JJAILANP@$0L@$06$0JNCMFGIA@$0P@$0OPMGAAAA@$0BC@@tr1@std@@$$Q0KB ; std::tr1::mersenne_twister<unsigned long,32,624,397,31,2567483615,11,7,2636928640,15,4022730752,18>::_LMSK
.local	?ara@@$$Q3PAHA,24000040				; ara
.local	?arb@@$$Q3PAHA,24000040				; arb
.local	?arc@@$$Q3PAHA,24000040				; arc
.local	?bstart@@$$Q3_NA,1				; bstart
.local	?bMode@@$$Q3HA,4				; bMode
	.rdata
	.comdat	any, ?_LMSK@?$mersenne_twister@K$0CA@$0CHA@$0BIN@$0BP@$0JJAILANP@$0L@$06$0JNCMFGIA@$0P@$0OPMGAAAA@$0BC@@tr1@std@@$$Q0KB

?_LMSK@?$mersenne_twister@K$0CA@$0CHA@$0BIN@$0BP@$0JJAILANP@$0L@$06$0JNCMFGIA@$0P@$0OPMGAAAA@$0BC@@tr1@std@@$$Q0KB: ; std::tr1::mersenne_twister<unsigned long,32,624,397,31,2567483615,11,7,2636928640,15,4022730752,18>::_LMSK
	.word	0x7fffffff
	.rdata
	.comdat	any, ?_HMSK@?$mersenne_twister@K$0CA@$0CHA@$0BIN@$0BP@$0JJAILANP@$0L@$06$0JNCMFGIA@$0P@$0OPMGAAAA@$0BC@@tr1@std@@$$Q0KB

?_HMSK@?$mersenne_twister@K$0CA@$0CHA@$0BIN@$0BP@$0JJAILANP@$0L@$06$0JNCMFGIA@$0P@$0OPMGAAAA@$0BC@@tr1@std@@$$Q0KB: ; std::tr1::mersenne_twister<unsigned long,32,624,397,31,2567483615,11,7,2636928640,15,4022730752,18>::_HMSK
	.word	0x80000000
	.rdata
	.comdat	any, ?_WMSK@?$mersenne_twister@K$0CA@$0CHA@$0BIN@$0BP@$0JJAILANP@$0L@$06$0JNCMFGIA@$0P@$0OPMGAAAA@$0BC@@tr1@std@@$$Q0KB

?_WMSK@?$mersenne_twister@K$0CA@$0CHA@$0BIN@$0BP@$0JJAILANP@$0L@$06$0JNCMFGIA@$0P@$0OPMGAAAA@$0BC@@tr1@std@@$$Q0KB: ; std::tr1::mersenne_twister<unsigned long,32,624,397,31,2567483615,11,7,2636928640,15,4022730752,18>::_WMSK
	.word	0xffffffff
	.rdata
	.comdat	any, ?default_seed@?$mersenne_twister@K$0CA@$0CHA@$0BIN@$0BP@$0JJAILANP@$0L@$06$0JNCMFGIA@$0P@$0OPMGAAAA@$0BC@@tr1@std@@$$Q2KB

?default_seed@?$mersenne_twister@K$0CA@$0CHA@$0BIN@$0BP@$0JJAILANP@$0L@$06$0JNCMFGIA@$0P@$0OPMGAAAA@$0BC@@tr1@std@@$$Q2KB: ; std::tr1::mersenne_twister<unsigned long,32,624,397,31,2567483615,11,7,2636928640,15,4022730752,18>::default_seed
	.word	0x1571
	.rdata
	.comdat	any, ?output_l@?$mersenne_twister@K$0CA@$0CHA@$0BIN@$0BP@$0JJAILANP@$0L@$06$0JNCMFGIA@$0P@$0OPMGAAAA@$0BC@@tr1@std@@$$Q2HB

?output_l@?$mersenne_twister@K$0CA@$0CHA@$0BIN@$0BP@$0JJAILANP@$0L@$06$0JNCMFGIA@$0P@$0OPMGAAAA@$0BC@@tr1@std@@$$Q2HB: ; std::tr1::mersenne_twister<unsigned long,32,624,397,31,2567483615,11,7,2636928640,15,4022730752,18>::output_l
	.word	0x12
	.rdata
	.comdat	any, ?output_c@?$mersenne_twister@K$0CA@$0CHA@$0BIN@$0BP@$0JJAILANP@$0L@$06$0JNCMFGIA@$0P@$0OPMGAAAA@$0BC@@tr1@std@@$$Q2KB

?output_c@?$mersenne_twister@K$0CA@$0CHA@$0BIN@$0BP@$0JJAILANP@$0L@$06$0JNCMFGIA@$0P@$0OPMGAAAA@$0BC@@tr1@std@@$$Q2KB: ; std::tr1::mersenne_twister<unsigned long,32,624,397,31,2567483615,11,7,2636928640,15,4022730752,18>::output_c
	.word	0xefc60000
	.rdata
	.comdat	any, ?output_t@?$mersenne_twister@K$0CA@$0CHA@$0BIN@$0BP@$0JJAILANP@$0L@$06$0JNCMFGIA@$0P@$0OPMGAAAA@$0BC@@tr1@std@@$$Q2HB

?output_t@?$mersenne_twister@K$0CA@$0CHA@$0BIN@$0BP@$0JJAILANP@$0L@$06$0JNCMFGIA@$0P@$0OPMGAAAA@$0BC@@tr1@std@@$$Q2HB: ; std::tr1::mersenne_twister<unsigned long,32,624,397,31,2567483615,11,7,2636928640,15,4022730752,18>::output_t
	.word	0xf
	.rdata
	.comdat	any, ?output_b@?$mersenne_twister@K$0CA@$0CHA@$0BIN@$0BP@$0JJAILANP@$0L@$06$0JNCMFGIA@$0P@$0OPMGAAAA@$0BC@@tr1@std@@$$Q2KB

?output_b@?$mersenne_twister@K$0CA@$0CHA@$0BIN@$0BP@$0JJAILANP@$0L@$06$0JNCMFGIA@$0P@$0OPMGAAAA@$0BC@@tr1@std@@$$Q2KB: ; std::tr1::mersenne_twister<unsigned long,32,624,397,31,2567483615,11,7,2636928640,15,4022730752,18>::output_b
	.word	0x9d2c5680
	.rdata
	.comdat	any, ?output_s@?$mersenne_twister@K$0CA@$0CHA@$0BIN@$0BP@$0JJAILANP@$0L@$06$0JNCMFGIA@$0P@$0OPMGAAAA@$0BC@@tr1@std@@$$Q2HB

?output_s@?$mersenne_twister@K$0CA@$0CHA@$0BIN@$0BP@$0JJAILANP@$0L@$06$0JNCMFGIA@$0P@$0OPMGAAAA@$0BC@@tr1@std@@$$Q2HB: ; std::tr1::mersenne_twister<unsigned long,32,624,397,31,2567483615,11,7,2636928640,15,4022730752,18>::output_s
	.word	0x7
	.rdata
	.comdat	any, ?output_u@?$mersenne_twister@K$0CA@$0CHA@$0BIN@$0BP@$0JJAILANP@$0L@$06$0JNCMFGIA@$0P@$0OPMGAAAA@$0BC@@tr1@std@@$$Q2HB

?output_u@?$mersenne_twister@K$0CA@$0CHA@$0BIN@$0BP@$0JJAILANP@$0L@$06$0JNCMFGIA@$0P@$0OPMGAAAA@$0BC@@tr1@std@@$$Q2HB: ; std::tr1::mersenne_twister<unsigned long,32,624,397,31,2567483615,11,7,2636928640,15,4022730752,18>::output_u
	.word	0xb
	.rdata
	.comdat	any, ?parameter_a@?$mersenne_twister@K$0CA@$0CHA@$0BIN@$0BP@$0JJAILANP@$0L@$06$0JNCMFGIA@$0P@$0OPMGAAAA@$0BC@@tr1@std@@$$Q2KB

?parameter_a@?$mersenne_twister@K$0CA@$0CHA@$0BIN@$0BP@$0JJAILANP@$0L@$06$0JNCMFGIA@$0P@$0OPMGAAAA@$0BC@@tr1@std@@$$Q2KB: ; std::tr1::mersenne_twister<unsigned long,32,624,397,31,2567483615,11,7,2636928640,15,4022730752,18>::parameter_a
	.word	0x9908b0df
	.rdata
	.comdat	any, ?mask_bits@?$mersenne_twister@K$0CA@$0CHA@$0BIN@$0BP@$0JJAILANP@$0L@$06$0JNCMFGIA@$0P@$0OPMGAAAA@$0BC@@tr1@std@@$$Q2HB

?mask_bits@?$mersenne_twister@K$0CA@$0CHA@$0BIN@$0BP@$0JJAILANP@$0L@$06$0JNCMFGIA@$0P@$0OPMGAAAA@$0BC@@tr1@std@@$$Q2HB: ; std::tr1::mersenne_twister<unsigned long,32,624,397,31,2567483615,11,7,2636928640,15,4022730752,18>::mask_bits
	.word	0x1f
	.rdata
	.comdat	any, ?shift_size@?$mersenne_twister@K$0CA@$0CHA@$0BIN@$0BP@$0JJAILANP@$0L@$06$0JNCMFGIA@$0P@$0OPMGAAAA@$0BC@@tr1@std@@$$Q2HB

?shift_size@?$mersenne_twister@K$0CA@$0CHA@$0BIN@$0BP@$0JJAILANP@$0L@$06$0JNCMFGIA@$0P@$0OPMGAAAA@$0BC@@tr1@std@@$$Q2HB: ; std::tr1::mersenne_twister<unsigned long,32,624,397,31,2567483615,11,7,2636928640,15,4022730752,18>::shift_size
	.word	0x18d
	.rdata
	.comdat	any, ?state_size@?$mersenne_twister@K$0CA@$0CHA@$0BIN@$0BP@$0JJAILANP@$0L@$06$0JNCMFGIA@$0P@$0OPMGAAAA@$0BC@@tr1@std@@$$Q2HB

?state_size@?$mersenne_twister@K$0CA@$0CHA@$0BIN@$0BP@$0JJAILANP@$0L@$06$0JNCMFGIA@$0P@$0OPMGAAAA@$0BC@@tr1@std@@$$Q2HB: ; std::tr1::mersenne_twister<unsigned long,32,624,397,31,2567483615,11,7,2636928640,15,4022730752,18>::state_size
	.word	0x270
	.rdata
	.comdat	any, ?word_size@?$mersenne_twister@K$0CA@$0CHA@$0BIN@$0BP@$0JJAILANP@$0L@$06$0JNCMFGIA@$0P@$0OPMGAAAA@$0BC@@tr1@std@@$$Q2HB

?word_size@?$mersenne_twister@K$0CA@$0CHA@$0BIN@$0BP@$0JJAILANP@$0L@$06$0JNCMFGIA@$0P@$0OPMGAAAA@$0BC@@tr1@std@@$$Q2HB: ; std::tr1::mersenne_twister<unsigned long,32,624,397,31,2567483615,11,7,2636928640,15,4022730752,18>::word_size
	.word	0x20
	.rdata
	.comdat	any, ?end@?$_Iosb@H@std@@$$Q2W4_Seekdir@12@B

?end@?$_Iosb@H@std@@$$Q2W4_Seekdir@12@B:		; std::_Iosb<int>::end
	.word	0x2
	.rdata
	.comdat	any, ?cur@?$_Iosb@H@std@@$$Q2W4_Seekdir@12@B

?cur@?$_Iosb@H@std@@$$Q2W4_Seekdir@12@B:		; std::_Iosb<int>::cur
	.word	0x1
	.rdata
	.comdat	any, ?beg@?$_Iosb@H@std@@$$Q2W4_Seekdir@12@B

?beg@?$_Iosb@H@std@@$$Q2W4_Seekdir@12@B:		; std::_Iosb<int>::beg
	.word	0x0
	.rdata
	.comdat	any, ?binary@?$_Iosb@H@std@@$$Q2W4_Openmode@12@B

?binary@?$_Iosb@H@std@@$$Q2W4_Openmode@12@B:		; std::_Iosb<int>::binary
	.word	0x20
	.rdata
	.comdat	any, ?_Noreplace@?$_Iosb@H@std@@$$Q2W4_Openmode@12@B

?_Noreplace@?$_Iosb@H@std@@$$Q2W4_Openmode@12@B:	; std::_Iosb<int>::_Noreplace
	.word	0x80
	.rdata
	.comdat	any, ?_Nocreate@?$_Iosb@H@std@@$$Q2W4_Openmode@12@B

?_Nocreate@?$_Iosb@H@std@@$$Q2W4_Openmode@12@B:		; std::_Iosb<int>::_Nocreate
	.word	0x40
	.rdata
	.comdat	any, ?trunc@?$_Iosb@H@std@@$$Q2W4_Openmode@12@B

?trunc@?$_Iosb@H@std@@$$Q2W4_Openmode@12@B:		; std::_Iosb<int>::trunc
	.word	0x10
	.rdata
	.comdat	any, ?app@?$_Iosb@H@std@@$$Q2W4_Openmode@12@B

?app@?$_Iosb@H@std@@$$Q2W4_Openmode@12@B:		; std::_Iosb<int>::app
	.word	0x8
	.rdata
	.comdat	any, ?ate@?$_Iosb@H@std@@$$Q2W4_Openmode@12@B

?ate@?$_Iosb@H@std@@$$Q2W4_Openmode@12@B:		; std::_Iosb<int>::ate
	.word	0x4
	.rdata
	.comdat	any, ?out@?$_Iosb@H@std@@$$Q2W4_Openmode@12@B

?out@?$_Iosb@H@std@@$$Q2W4_Openmode@12@B:		; std::_Iosb<int>::out
	.word	0x2
	.rdata
	.comdat	any, ?in@?$_Iosb@H@std@@$$Q2W4_Openmode@12@B

?in@?$_Iosb@H@std@@$$Q2W4_Openmode@12@B:		; std::_Iosb<int>::in
	.word	0x1
	.rdata
	.comdat	any, ?_Hardfail@?$_Iosb@H@std@@$$Q2W4_Iostate@12@B

?_Hardfail@?$_Iosb@H@std@@$$Q2W4_Iostate@12@B:		; std::_Iosb<int>::_Hardfail
	.word	0x10
	.rdata
	.comdat	any, ?badbit@?$_Iosb@H@std@@$$Q2W4_Iostate@12@B

?badbit@?$_Iosb@H@std@@$$Q2W4_Iostate@12@B:		; std::_Iosb<int>::badbit
	.word	0x4
	.rdata
	.comdat	any, ?failbit@?$_Iosb@H@std@@$$Q2W4_Iostate@12@B

?failbit@?$_Iosb@H@std@@$$Q2W4_Iostate@12@B:		; std::_Iosb<int>::failbit
	.word	0x2
	.rdata
	.comdat	any, ?eofbit@?$_Iosb@H@std@@$$Q2W4_Iostate@12@B

?eofbit@?$_Iosb@H@std@@$$Q2W4_Iostate@12@B:		; std::_Iosb<int>::eofbit
	.word	0x1
	.rdata
	.comdat	any, ?goodbit@?$_Iosb@H@std@@$$Q2W4_Iostate@12@B

?goodbit@?$_Iosb@H@std@@$$Q2W4_Iostate@12@B:		; std::_Iosb<int>::goodbit
	.word	0x0
	.rdata
	.comdat	any, ?floatfield@?$_Iosb@H@std@@$$Q2W4_Fmtflags@12@B

?floatfield@?$_Iosb@H@std@@$$Q2W4_Fmtflags@12@B:	; std::_Iosb<int>::floatfield
	.word	0x3000
	.rdata
	.comdat	any, ?basefield@?$_Iosb@H@std@@$$Q2W4_Fmtflags@12@B

?basefield@?$_Iosb@H@std@@$$Q2W4_Fmtflags@12@B:		; std::_Iosb<int>::basefield
	.word	0xe00
	.rdata
	.comdat	any, ?adjustfield@?$_Iosb@H@std@@$$Q2W4_Fmtflags@12@B

?adjustfield@?$_Iosb@H@std@@$$Q2W4_Fmtflags@12@B:	; std::_Iosb<int>::adjustfield
	.word	0x1c0
	.rdata
	.comdat	any, ?_Stdio@?$_Iosb@H@std@@$$Q2W4_Fmtflags@12@B

?_Stdio@?$_Iosb@H@std@@$$Q2W4_Fmtflags@12@B:		; std::_Iosb<int>::_Stdio
	.word	0x8000
	.rdata
	.comdat	any, ?boolalpha@?$_Iosb@H@std@@$$Q2W4_Fmtflags@12@B

?boolalpha@?$_Iosb@H@std@@$$Q2W4_Fmtflags@12@B:		; std::_Iosb<int>::boolalpha
	.word	0x4000
	.rdata
	.comdat	any, ?hexfloat@?$_Iosb@H@std@@$$Q2W4_Fmtflags@12@B

?hexfloat@?$_Iosb@H@std@@$$Q2W4_Fmtflags@12@B:		; std::_Iosb<int>::hexfloat
	.word	0x3000
	.rdata
	.comdat	any, ?fixed@?$_Iosb@H@std@@$$Q2W4_Fmtflags@12@B

?fixed@?$_Iosb@H@std@@$$Q2W4_Fmtflags@12@B:		; std::_Iosb<int>::fixed
	.word	0x2000
	.rdata
	.comdat	any, ?scientific@?$_Iosb@H@std@@$$Q2W4_Fmtflags@12@B

?scientific@?$_Iosb@H@std@@$$Q2W4_Fmtflags@12@B:	; std::_Iosb<int>::scientific
	.word	0x1000
	.rdata
	.comdat	any, ?hex@?$_Iosb@H@std@@$$Q2W4_Fmtflags@12@B

?hex@?$_Iosb@H@std@@$$Q2W4_Fmtflags@12@B:		; std::_Iosb<int>::hex
	.word	0x800
	.rdata
	.comdat	any, ?oct@?$_Iosb@H@std@@$$Q2W4_Fmtflags@12@B

?oct@?$_Iosb@H@std@@$$Q2W4_Fmtflags@12@B:		; std::_Iosb<int>::oct
	.word	0x400
	.rdata
	.comdat	any, ?dec@?$_Iosb@H@std@@$$Q2W4_Fmtflags@12@B

?dec@?$_Iosb@H@std@@$$Q2W4_Fmtflags@12@B:		; std::_Iosb<int>::dec
	.word	0x200
	.rdata
	.comdat	any, ?internal@?$_Iosb@H@std@@$$Q2W4_Fmtflags@12@B

?internal@?$_Iosb@H@std@@$$Q2W4_Fmtflags@12@B:		; std::_Iosb<int>::internal
	.word	0x100
	.rdata
	.comdat	any, ?right@?$_Iosb@H@std@@$$Q2W4_Fmtflags@12@B

?right@?$_Iosb@H@std@@$$Q2W4_Fmtflags@12@B:		; std::_Iosb<int>::right
	.word	0x80
	.rdata
	.comdat	any, ?left@?$_Iosb@H@std@@$$Q2W4_Fmtflags@12@B

?left@?$_Iosb@H@std@@$$Q2W4_Fmtflags@12@B:		; std::_Iosb<int>::left
	.word	0x40
	.rdata
	.comdat	any, ?showpos@?$_Iosb@H@std@@$$Q2W4_Fmtflags@12@B

?showpos@?$_Iosb@H@std@@$$Q2W4_Fmtflags@12@B:		; std::_Iosb<int>::showpos
	.word	0x20
	.rdata
	.comdat	any, ?showpoint@?$_Iosb@H@std@@$$Q2W4_Fmtflags@12@B

?showpoint@?$_Iosb@H@std@@$$Q2W4_Fmtflags@12@B:		; std::_Iosb<int>::showpoint
	.word	0x10
	.rdata
	.comdat	any, ?showbase@?$_Iosb@H@std@@$$Q2W4_Fmtflags@12@B

?showbase@?$_Iosb@H@std@@$$Q2W4_Fmtflags@12@B:		; std::_Iosb<int>::showbase
	.word	0x8
	.rdata
	.comdat	any, ?uppercase@?$_Iosb@H@std@@$$Q2W4_Fmtflags@12@B

?uppercase@?$_Iosb@H@std@@$$Q2W4_Fmtflags@12@B:		; std::_Iosb<int>::uppercase
	.word	0x4
	.rdata
	.comdat	any, ?unitbuf@?$_Iosb@H@std@@$$Q2W4_Fmtflags@12@B

?unitbuf@?$_Iosb@H@std@@$$Q2W4_Fmtflags@12@B:		; std::_Iosb<int>::unitbuf
	.word	0x2
	.rdata
	.comdat	any, ?skipws@?$_Iosb@H@std@@$$Q2W4_Fmtflags@12@B

?skipws@?$_Iosb@H@std@@$$Q2W4_Fmtflags@12@B:		; std::_Iosb<int>::skipws
	.word	0x1
	.rdata
	.comdat	any, ?table_size@?$ctype@D@std@@2IB

?table_size@?$ctype@D@std@@2IB:				; std::ctype<char>::table_size
	.word	0x100
	.rdata
	.comdat	any, ?none@?$_Locbase@H@std@@2HB

?none@?$_Locbase@H@std@@2HB:				; std::_Locbase<int>::none
	.word	0x0
	.rdata
	.comdat	any, ?all@?$_Locbase@H@std@@2HB

?all@?$_Locbase@H@std@@2HB:				; std::_Locbase<int>::all
	.word	0x3f
	.rdata
	.comdat	any, ?messages@?$_Locbase@H@std@@2HB

?messages@?$_Locbase@H@std@@2HB:			; std::_Locbase<int>::messages
	.word	0x20
	.rdata
	.comdat	any, ?time@?$_Locbase@H@std@@2HB

?time@?$_Locbase@H@std@@2HB:				; std::_Locbase<int>::time
	.word	0x10
	.rdata
	.comdat	any, ?numeric@?$_Locbase@H@std@@2HB

?numeric@?$_Locbase@H@std@@2HB:				; std::_Locbase<int>::numeric
	.word	0x8
	.rdata
	.comdat	any, ?monetary@?$_Locbase@H@std@@2HB

?monetary@?$_Locbase@H@std@@2HB:			; std::_Locbase<int>::monetary
	.word	0x4
	.rdata
	.comdat	any, ?ctype@?$_Locbase@H@std@@2HB

?ctype@?$_Locbase@H@std@@2HB:				; std::_Locbase<int>::ctype
	.word	0x2
	.rdata
	.comdat	any, ?collate@?$_Locbase@H@std@@2HB

?collate@?$_Locbase@H@std@@2HB:				; std::_Locbase<int>::collate
	.word	0x1
	.rdata
	.comdat	any, ?_Rank@?$_Arithmetic_traits@O@std@@$$Q2HB

?_Rank@?$_Arithmetic_traits@O@std@@$$Q2HB:		; std::_Arithmetic_traits<long double>::_Rank
	.word	0x9
	.rdata
	.comdat	any, ?_Rank@?$_Arithmetic_traits@N@std@@$$Q2HB

?_Rank@?$_Arithmetic_traits@N@std@@$$Q2HB:		; std::_Arithmetic_traits<double>::_Rank
	.word	0x8
	.rdata
	.comdat	any, ?_Rank@?$_Arithmetic_traits@M@std@@$$Q2HB

?_Rank@?$_Arithmetic_traits@M@std@@$$Q2HB:		; std::_Arithmetic_traits<float>::_Rank
	.word	0x7
	.rdata
	.comdat	any, ?_Rank@?$_Arithmetic_traits@_K@std@@$$Q2HB

?_Rank@?$_Arithmetic_traits@_K@std@@$$Q2HB:		; std::_Arithmetic_traits<unsigned __int64>::_Rank
	.word	0x6
	.rdata
	.comdat	any, ?_Rank@?$_Arithmetic_traits@_J@std@@$$Q2HB

?_Rank@?$_Arithmetic_traits@_J@std@@$$Q2HB:		; std::_Arithmetic_traits<__int64>::_Rank
	.word	0x6
	.rdata
	.comdat	any, ?_Rank@?$_Arithmetic_traits@K@std@@$$Q2HB

?_Rank@?$_Arithmetic_traits@K@std@@$$Q2HB:		; std::_Arithmetic_traits<unsigned long>::_Rank
	.word	0x5
	.rdata
	.comdat	any, ?_Rank@?$_Arithmetic_traits@J@std@@$$Q2HB

?_Rank@?$_Arithmetic_traits@J@std@@$$Q2HB:		; std::_Arithmetic_traits<long>::_Rank
	.word	0x5
	.rdata
	.comdat	any, ?_Rank@?$_Arithmetic_traits@I@std@@$$Q2HB

?_Rank@?$_Arithmetic_traits@I@std@@$$Q2HB:		; std::_Arithmetic_traits<unsigned int>::_Rank
	.word	0x4
	.rdata
	.comdat	any, ?_Rank@?$_Arithmetic_traits@H@std@@$$Q2HB

?_Rank@?$_Arithmetic_traits@H@std@@$$Q2HB:		; std::_Arithmetic_traits<int>::_Rank
	.word	0x4
	.rdata
	.comdat	any, ?_Rank@?$_Arithmetic_traits@G@std@@$$Q2HB

?_Rank@?$_Arithmetic_traits@G@std@@$$Q2HB:		; std::_Arithmetic_traits<unsigned short>::_Rank
	.word	0x3
	.rdata
	.comdat	any, ?_Rank@?$_Arithmetic_traits@F@std@@$$Q2HB

?_Rank@?$_Arithmetic_traits@F@std@@$$Q2HB:		; std::_Arithmetic_traits<short>::_Rank
	.word	0x3
	.rdata
	.comdat	any, ?_Rank@?$_Arithmetic_traits@E@std@@$$Q2HB

?_Rank@?$_Arithmetic_traits@E@std@@$$Q2HB:		; std::_Arithmetic_traits<unsigned char>::_Rank
	.word	0x2
	.rdata
	.comdat	any, ?_Rank@?$_Arithmetic_traits@C@std@@$$Q2HB

?_Rank@?$_Arithmetic_traits@C@std@@$$Q2HB:		; std::_Arithmetic_traits<signed char>::_Rank
	.word	0x2
	.rdata
	.comdat	any, ?_Rank@?$_Arithmetic_traits@D@std@@$$Q2HB

?_Rank@?$_Arithmetic_traits@D@std@@$$Q2HB:		; std::_Arithmetic_traits<char>::_Rank
	.word	0x2
	.rdata
	.comdat	any, ?_Rank@?$_Arithmetic_traits@_N@std@@$$Q2HB

?_Rank@?$_Arithmetic_traits@_N@std@@$$Q2HB:		; std::_Arithmetic_traits<bool>::_Rank
	.word	0x1
	.rdata
	.comdat	any, ?value@?$integral_constant@I$0A@@tr1@std@@$$Q2IB

?value@?$integral_constant@I$0A@@tr1@std@@$$Q2IB:	; std::tr1::integral_constant<unsigned int,0>::value
	.word	0x0
	.rdata
	.comdat	any, ?value@?$integral_constant@_N$00@tr1@std@@$$Q2_NB

?value@?$integral_constant@_N$00@tr1@std@@$$Q2_NB:	; std::tr1::integral_constant<bool,1>::value
	.byte	0x1
	.rdata
	.comdat	any, ?value@?$integral_constant@_N$0A@@tr1@std@@$$Q2_NB

?value@?$integral_constant@_N$0A@@tr1@std@@$$Q2_NB:	; std::tr1::integral_constant<bool,0>::value
	.byte	0x0
	.rdata
	.comdat	any, ?min_exponent10@?$numeric_limits@O@std@@$$Q2HB

?min_exponent10@?$numeric_limits@O@std@@$$Q2HB:		; std::numeric_limits<long double>::min_exponent10
	.word	0xfffffecd
	.rdata
	.comdat	any, ?min_exponent@?$numeric_limits@O@std@@$$Q2HB

?min_exponent@?$numeric_limits@O@std@@$$Q2HB:		; std::numeric_limits<long double>::min_exponent
	.word	0xfffffc03
	.rdata
	.comdat	any, ?max_exponent10@?$numeric_limits@O@std@@$$Q2HB

?max_exponent10@?$numeric_limits@O@std@@$$Q2HB:		; std::numeric_limits<long double>::max_exponent10
	.word	0x134
	.rdata
	.comdat	any, ?max_exponent@?$numeric_limits@O@std@@$$Q2HB

?max_exponent@?$numeric_limits@O@std@@$$Q2HB:		; std::numeric_limits<long double>::max_exponent
	.word	0x400
	.rdata
	.comdat	any, ?max_digits10@?$numeric_limits@O@std@@$$Q2HB

?max_digits10@?$numeric_limits@O@std@@$$Q2HB:		; std::numeric_limits<long double>::max_digits10
	.word	0x11
	.rdata
	.comdat	any, ?digits10@?$numeric_limits@O@std@@$$Q2HB

?digits10@?$numeric_limits@O@std@@$$Q2HB:		; std::numeric_limits<long double>::digits10
	.word	0xf
	.rdata
	.comdat	any, ?digits@?$numeric_limits@O@std@@$$Q2HB

?digits@?$numeric_limits@O@std@@$$Q2HB:			; std::numeric_limits<long double>::digits
	.word	0x35
	.rdata
	.comdat	any, ?min_exponent10@?$numeric_limits@N@std@@$$Q2HB

?min_exponent10@?$numeric_limits@N@std@@$$Q2HB:		; std::numeric_limits<double>::min_exponent10
	.word	0xfffffecd
	.rdata
	.comdat	any, ?min_exponent@?$numeric_limits@N@std@@$$Q2HB

?min_exponent@?$numeric_limits@N@std@@$$Q2HB:		; std::numeric_limits<double>::min_exponent
	.word	0xfffffc03
	.rdata
	.comdat	any, ?max_exponent10@?$numeric_limits@N@std@@$$Q2HB

?max_exponent10@?$numeric_limits@N@std@@$$Q2HB:		; std::numeric_limits<double>::max_exponent10
	.word	0x134
	.rdata
	.comdat	any, ?max_exponent@?$numeric_limits@N@std@@$$Q2HB

?max_exponent@?$numeric_limits@N@std@@$$Q2HB:		; std::numeric_limits<double>::max_exponent
	.word	0x400
	.rdata
	.comdat	any, ?max_digits10@?$numeric_limits@N@std@@$$Q2HB

?max_digits10@?$numeric_limits@N@std@@$$Q2HB:		; std::numeric_limits<double>::max_digits10
	.word	0x11
	.rdata
	.comdat	any, ?digits10@?$numeric_limits@N@std@@$$Q2HB

?digits10@?$numeric_limits@N@std@@$$Q2HB:		; std::numeric_limits<double>::digits10
	.word	0xf
	.rdata
	.comdat	any, ?digits@?$numeric_limits@N@std@@$$Q2HB

?digits@?$numeric_limits@N@std@@$$Q2HB:			; std::numeric_limits<double>::digits
	.word	0x35
	.rdata
	.comdat	any, ?min_exponent10@?$numeric_limits@M@std@@$$Q2HB

?min_exponent10@?$numeric_limits@M@std@@$$Q2HB:		; std::numeric_limits<float>::min_exponent10
	.word	0xffffffdb
	.rdata
	.comdat	any, ?min_exponent@?$numeric_limits@M@std@@$$Q2HB

?min_exponent@?$numeric_limits@M@std@@$$Q2HB:		; std::numeric_limits<float>::min_exponent
	.word	0xffffff83
	.rdata
	.comdat	any, ?max_exponent10@?$numeric_limits@M@std@@$$Q2HB

?max_exponent10@?$numeric_limits@M@std@@$$Q2HB:		; std::numeric_limits<float>::max_exponent10
	.word	0x26
	.rdata
	.comdat	any, ?max_exponent@?$numeric_limits@M@std@@$$Q2HB

?max_exponent@?$numeric_limits@M@std@@$$Q2HB:		; std::numeric_limits<float>::max_exponent
	.word	0x80
	.rdata
	.comdat	any, ?max_digits10@?$numeric_limits@M@std@@$$Q2HB

?max_digits10@?$numeric_limits@M@std@@$$Q2HB:		; std::numeric_limits<float>::max_digits10
	.word	0x8
	.rdata
	.comdat	any, ?digits10@?$numeric_limits@M@std@@$$Q2HB

?digits10@?$numeric_limits@M@std@@$$Q2HB:		; std::numeric_limits<float>::digits10
	.word	0x6
	.rdata
	.comdat	any, ?digits@?$numeric_limits@M@std@@$$Q2HB

?digits@?$numeric_limits@M@std@@$$Q2HB:			; std::numeric_limits<float>::digits
	.word	0x18
	.rdata
	.comdat	any, ?max_digits10@?$numeric_limits@_K@std@@$$Q2HB

?max_digits10@?$numeric_limits@_K@std@@$$Q2HB:		; std::numeric_limits<unsigned __int64>::max_digits10
	.word	0x15
	.rdata
	.comdat	any, ?digits10@?$numeric_limits@_K@std@@$$Q2HB

?digits10@?$numeric_limits@_K@std@@$$Q2HB:		; std::numeric_limits<unsigned __int64>::digits10
	.word	0x13
	.rdata
	.comdat	any, ?digits@?$numeric_limits@_K@std@@$$Q2HB

?digits@?$numeric_limits@_K@std@@$$Q2HB:		; std::numeric_limits<unsigned __int64>::digits
	.word	0x40
	.rdata
	.comdat	any, ?is_signed@?$numeric_limits@_K@std@@$$Q2_NB

?is_signed@?$numeric_limits@_K@std@@$$Q2_NB:		; std::numeric_limits<unsigned __int64>::is_signed
	.byte	0x0
	.rdata
	.comdat	any, ?max_digits10@?$numeric_limits@_J@std@@$$Q2HB

?max_digits10@?$numeric_limits@_J@std@@$$Q2HB:		; std::numeric_limits<__int64>::max_digits10
	.word	0x14
	.rdata
	.comdat	any, ?digits10@?$numeric_limits@_J@std@@$$Q2HB

?digits10@?$numeric_limits@_J@std@@$$Q2HB:		; std::numeric_limits<__int64>::digits10
	.word	0x12
	.rdata
	.comdat	any, ?digits@?$numeric_limits@_J@std@@$$Q2HB

?digits@?$numeric_limits@_J@std@@$$Q2HB:		; std::numeric_limits<__int64>::digits
	.word	0x3f
	.rdata
	.comdat	any, ?is_signed@?$numeric_limits@_J@std@@$$Q2_NB

?is_signed@?$numeric_limits@_J@std@@$$Q2_NB:		; std::numeric_limits<__int64>::is_signed
	.byte	0x1
	.rdata
	.comdat	any, ?max_digits10@?$numeric_limits@K@std@@$$Q2HB

?max_digits10@?$numeric_limits@K@std@@$$Q2HB:		; std::numeric_limits<unsigned long>::max_digits10
	.word	0xb
	.rdata
	.comdat	any, ?digits10@?$numeric_limits@K@std@@$$Q2HB

?digits10@?$numeric_limits@K@std@@$$Q2HB:		; std::numeric_limits<unsigned long>::digits10
	.word	0x9
	.rdata
	.comdat	any, ?digits@?$numeric_limits@K@std@@$$Q2HB

?digits@?$numeric_limits@K@std@@$$Q2HB:			; std::numeric_limits<unsigned long>::digits
	.word	0x20
	.rdata
	.comdat	any, ?is_signed@?$numeric_limits@K@std@@$$Q2_NB

?is_signed@?$numeric_limits@K@std@@$$Q2_NB:		; std::numeric_limits<unsigned long>::is_signed
	.byte	0x0
	.rdata
	.comdat	any, ?max_digits10@?$numeric_limits@J@std@@$$Q2HB

?max_digits10@?$numeric_limits@J@std@@$$Q2HB:		; std::numeric_limits<long>::max_digits10
	.word	0xb
	.rdata
	.comdat	any, ?digits10@?$numeric_limits@J@std@@$$Q2HB

?digits10@?$numeric_limits@J@std@@$$Q2HB:		; std::numeric_limits<long>::digits10
	.word	0x9
	.rdata
	.comdat	any, ?digits@?$numeric_limits@J@std@@$$Q2HB

?digits@?$numeric_limits@J@std@@$$Q2HB:			; std::numeric_limits<long>::digits
	.word	0x1f
	.rdata
	.comdat	any, ?is_signed@?$numeric_limits@J@std@@$$Q2_NB

?is_signed@?$numeric_limits@J@std@@$$Q2_NB:		; std::numeric_limits<long>::is_signed
	.byte	0x1
	.rdata
	.comdat	any, ?max_digits10@?$numeric_limits@I@std@@$$Q2HB

?max_digits10@?$numeric_limits@I@std@@$$Q2HB:		; std::numeric_limits<unsigned int>::max_digits10
	.word	0xb
	.rdata
	.comdat	any, ?digits10@?$numeric_limits@I@std@@$$Q2HB

?digits10@?$numeric_limits@I@std@@$$Q2HB:		; std::numeric_limits<unsigned int>::digits10
	.word	0x9
	.rdata
	.comdat	any, ?digits@?$numeric_limits@I@std@@$$Q2HB

?digits@?$numeric_limits@I@std@@$$Q2HB:			; std::numeric_limits<unsigned int>::digits
	.word	0x20
	.rdata
	.comdat	any, ?is_signed@?$numeric_limits@I@std@@$$Q2_NB

?is_signed@?$numeric_limits@I@std@@$$Q2_NB:		; std::numeric_limits<unsigned int>::is_signed
	.byte	0x0
	.rdata
	.comdat	any, ?max_digits10@?$numeric_limits@H@std@@$$Q2HB

?max_digits10@?$numeric_limits@H@std@@$$Q2HB:		; std::numeric_limits<int>::max_digits10
	.word	0xb
	.rdata
	.comdat	any, ?digits10@?$numeric_limits@H@std@@$$Q2HB

?digits10@?$numeric_limits@H@std@@$$Q2HB:		; std::numeric_limits<int>::digits10
	.word	0x9
	.rdata
	.comdat	any, ?digits@?$numeric_limits@H@std@@$$Q2HB

?digits@?$numeric_limits@H@std@@$$Q2HB:			; std::numeric_limits<int>::digits
	.word	0x1f
	.rdata
	.comdat	any, ?is_signed@?$numeric_limits@H@std@@$$Q2_NB

?is_signed@?$numeric_limits@H@std@@$$Q2_NB:		; std::numeric_limits<int>::is_signed
	.byte	0x1
	.rdata
	.comdat	any, ?max_digits10@?$numeric_limits@G@std@@$$Q2HB

?max_digits10@?$numeric_limits@G@std@@$$Q2HB:		; std::numeric_limits<unsigned short>::max_digits10
	.word	0x6
	.rdata
	.comdat	any, ?digits10@?$numeric_limits@G@std@@$$Q2HB

?digits10@?$numeric_limits@G@std@@$$Q2HB:		; std::numeric_limits<unsigned short>::digits10
	.word	0x4
	.rdata
	.comdat	any, ?digits@?$numeric_limits@G@std@@$$Q2HB

?digits@?$numeric_limits@G@std@@$$Q2HB:			; std::numeric_limits<unsigned short>::digits
	.word	0x10
	.rdata
	.comdat	any, ?is_signed@?$numeric_limits@G@std@@$$Q2_NB

?is_signed@?$numeric_limits@G@std@@$$Q2_NB:		; std::numeric_limits<unsigned short>::is_signed
	.byte	0x0
	.rdata
	.comdat	any, ?max_digits10@?$numeric_limits@F@std@@$$Q2HB

?max_digits10@?$numeric_limits@F@std@@$$Q2HB:		; std::numeric_limits<short>::max_digits10
	.word	0x6
	.rdata
	.comdat	any, ?digits10@?$numeric_limits@F@std@@$$Q2HB

?digits10@?$numeric_limits@F@std@@$$Q2HB:		; std::numeric_limits<short>::digits10
	.word	0x4
	.rdata
	.comdat	any, ?digits@?$numeric_limits@F@std@@$$Q2HB

?digits@?$numeric_limits@F@std@@$$Q2HB:			; std::numeric_limits<short>::digits
	.word	0xf
	.rdata
	.comdat	any, ?is_signed@?$numeric_limits@F@std@@$$Q2_NB

?is_signed@?$numeric_limits@F@std@@$$Q2_NB:		; std::numeric_limits<short>::is_signed
	.byte	0x1
	.rdata
	.comdat	any, ?max_digits10@?$numeric_limits@E@std@@$$Q2HB

?max_digits10@?$numeric_limits@E@std@@$$Q2HB:		; std::numeric_limits<unsigned char>::max_digits10
	.word	0x4
	.rdata
	.comdat	any, ?digits10@?$numeric_limits@E@std@@$$Q2HB

?digits10@?$numeric_limits@E@std@@$$Q2HB:		; std::numeric_limits<unsigned char>::digits10
	.word	0x2
	.rdata
	.comdat	any, ?digits@?$numeric_limits@E@std@@$$Q2HB

?digits@?$numeric_limits@E@std@@$$Q2HB:			; std::numeric_limits<unsigned char>::digits
	.word	0x8
	.rdata
	.comdat	any, ?is_signed@?$numeric_limits@E@std@@$$Q2_NB

?is_signed@?$numeric_limits@E@std@@$$Q2_NB:		; std::numeric_limits<unsigned char>::is_signed
	.byte	0x0
	.rdata
	.comdat	any, ?max_digits10@?$numeric_limits@C@std@@$$Q2HB

?max_digits10@?$numeric_limits@C@std@@$$Q2HB:		; std::numeric_limits<signed char>::max_digits10
	.word	0x4
	.rdata
	.comdat	any, ?digits10@?$numeric_limits@C@std@@$$Q2HB

?digits10@?$numeric_limits@C@std@@$$Q2HB:		; std::numeric_limits<signed char>::digits10
	.word	0x2
	.rdata
	.comdat	any, ?digits@?$numeric_limits@C@std@@$$Q2HB

?digits@?$numeric_limits@C@std@@$$Q2HB:			; std::numeric_limits<signed char>::digits
	.word	0x7
	.rdata
	.comdat	any, ?is_signed@?$numeric_limits@C@std@@$$Q2_NB

?is_signed@?$numeric_limits@C@std@@$$Q2_NB:		; std::numeric_limits<signed char>::is_signed
	.byte	0x1
	.rdata
	.comdat	any, ?max_digits10@?$numeric_limits@_N@std@@$$Q2HB

?max_digits10@?$numeric_limits@_N@std@@$$Q2HB:		; std::numeric_limits<bool>::max_digits10
	.word	0x0
	.rdata
	.comdat	any, ?digits10@?$numeric_limits@_N@std@@$$Q2HB

?digits10@?$numeric_limits@_N@std@@$$Q2HB:		; std::numeric_limits<bool>::digits10
	.word	0x0
	.rdata
	.comdat	any, ?digits@?$numeric_limits@_N@std@@$$Q2HB

?digits@?$numeric_limits@_N@std@@$$Q2HB:		; std::numeric_limits<bool>::digits
	.word	0x1
	.rdata
	.comdat	any, ?is_signed@?$numeric_limits@_N@std@@$$Q2_NB

?is_signed@?$numeric_limits@_N@std@@$$Q2_NB:		; std::numeric_limits<bool>::is_signed
	.byte	0x0
	.rdata
	.comdat	any, ?is_modulo@?$numeric_limits@_N@std@@$$Q2_NB

?is_modulo@?$numeric_limits@_N@std@@$$Q2_NB:		; std::numeric_limits<bool>::is_modulo
	.byte	0x0
	.rdata
	.comdat	any, ?max_digits10@?$numeric_limits@_W@std@@$$Q2HB

?max_digits10@?$numeric_limits@_W@std@@$$Q2HB:		; std::numeric_limits<wchar_t>::max_digits10
	.word	0x6
	.rdata
	.comdat	any, ?digits10@?$numeric_limits@_W@std@@$$Q2HB

?digits10@?$numeric_limits@_W@std@@$$Q2HB:		; std::numeric_limits<wchar_t>::digits10
	.word	0x4
	.rdata
	.comdat	any, ?digits@?$numeric_limits@_W@std@@$$Q2HB

?digits@?$numeric_limits@_W@std@@$$Q2HB:		; std::numeric_limits<wchar_t>::digits
	.word	0x10
	.rdata
	.comdat	any, ?is_signed@?$numeric_limits@_W@std@@$$Q2_NB

?is_signed@?$numeric_limits@_W@std@@$$Q2_NB:		; std::numeric_limits<wchar_t>::is_signed
	.byte	0x0
	.rdata
	.comdat	any, ?max_digits10@?$numeric_limits@D@std@@$$Q2HB

?max_digits10@?$numeric_limits@D@std@@$$Q2HB:		; std::numeric_limits<char>::max_digits10
	.word	0x4
	.rdata
	.comdat	any, ?digits10@?$numeric_limits@D@std@@$$Q2HB

?digits10@?$numeric_limits@D@std@@$$Q2HB:		; std::numeric_limits<char>::digits10
	.word	0x2
	.rdata
	.comdat	any, ?digits@?$numeric_limits@D@std@@$$Q2HB

?digits@?$numeric_limits@D@std@@$$Q2HB:			; std::numeric_limits<char>::digits
	.word	0x7
	.rdata
	.comdat	any, ?is_signed@?$numeric_limits@D@std@@$$Q2_NB

?is_signed@?$numeric_limits@D@std@@$$Q2_NB:		; std::numeric_limits<char>::is_signed
	.byte	0x1
	.rdata
	.comdat	any, ?radix@_Num_float_base@std@@$$Q2HB

?radix@_Num_float_base@std@@$$Q2HB:			; std::_Num_float_base::radix
	.word	0x2
	.rdata
	.comdat	any, ?round_style@_Num_float_base@std@@$$Q2W4float_round_style@2@B

?round_style@_Num_float_base@std@@$$Q2W4float_round_style@2@B: ; std::_Num_float_base::round_style
	.word	0x1
	.rdata
	.comdat	any, ?traps@_Num_float_base@std@@$$Q2_NB

?traps@_Num_float_base@std@@$$Q2_NB:			; std::_Num_float_base::traps
	.byte	0x1
	.rdata
	.comdat	any, ?tinyness_before@_Num_float_base@std@@$$Q2_NB

?tinyness_before@_Num_float_base@std@@$$Q2_NB:		; std::_Num_float_base::tinyness_before
	.byte	0x1
	.rdata
	.comdat	any, ?is_specialized@_Num_float_base@std@@$$Q2_NB

?is_specialized@_Num_float_base@std@@$$Q2_NB:		; std::_Num_float_base::is_specialized
	.byte	0x1
	.rdata
	.comdat	any, ?is_signed@_Num_float_base@std@@$$Q2_NB

?is_signed@_Num_float_base@std@@$$Q2_NB:		; std::_Num_float_base::is_signed
	.byte	0x1
	.rdata
	.comdat	any, ?is_modulo@_Num_float_base@std@@$$Q2_NB

?is_modulo@_Num_float_base@std@@$$Q2_NB:		; std::_Num_float_base::is_modulo
	.byte	0x0
	.rdata
	.comdat	any, ?is_integer@_Num_float_base@std@@$$Q2_NB

?is_integer@_Num_float_base@std@@$$Q2_NB:		; std::_Num_float_base::is_integer
	.byte	0x0
	.rdata
	.comdat	any, ?is_iec559@_Num_float_base@std@@$$Q2_NB

?is_iec559@_Num_float_base@std@@$$Q2_NB:		; std::_Num_float_base::is_iec559
	.byte	0x1
	.rdata
	.comdat	any, ?is_exact@_Num_float_base@std@@$$Q2_NB

?is_exact@_Num_float_base@std@@$$Q2_NB:			; std::_Num_float_base::is_exact
	.byte	0x0
	.rdata
	.comdat	any, ?is_bounded@_Num_float_base@std@@$$Q2_NB

?is_bounded@_Num_float_base@std@@$$Q2_NB:		; std::_Num_float_base::is_bounded
	.byte	0x1
	.rdata
	.comdat	any, ?has_signaling_NaN@_Num_float_base@std@@$$Q2_NB

?has_signaling_NaN@_Num_float_base@std@@$$Q2_NB:	; std::_Num_float_base::has_signaling_NaN
	.byte	0x1
	.rdata
	.comdat	any, ?has_quiet_NaN@_Num_float_base@std@@$$Q2_NB

?has_quiet_NaN@_Num_float_base@std@@$$Q2_NB:		; std::_Num_float_base::has_quiet_NaN
	.byte	0x1
	.rdata
	.comdat	any, ?has_infinity@_Num_float_base@std@@$$Q2_NB

?has_infinity@_Num_float_base@std@@$$Q2_NB:		; std::_Num_float_base::has_infinity
	.byte	0x1
	.rdata
	.comdat	any, ?has_denorm_loss@_Num_float_base@std@@$$Q2_NB

?has_denorm_loss@_Num_float_base@std@@$$Q2_NB:		; std::_Num_float_base::has_denorm_loss
	.byte	0x1
	.rdata
	.comdat	any, ?has_denorm@_Num_float_base@std@@$$Q2W4float_denorm_style@2@B

?has_denorm@_Num_float_base@std@@$$Q2W4float_denorm_style@2@B: ; std::_Num_float_base::has_denorm
	.word	0x1
	.rdata
	.comdat	any, ?radix@_Num_int_base@std@@$$Q2HB

?radix@_Num_int_base@std@@$$Q2HB:			; std::_Num_int_base::radix
	.word	0x2
	.rdata
	.comdat	any, ?is_specialized@_Num_int_base@std@@$$Q2_NB

?is_specialized@_Num_int_base@std@@$$Q2_NB:		; std::_Num_int_base::is_specialized
	.byte	0x1
	.rdata
	.comdat	any, ?is_modulo@_Num_int_base@std@@$$Q2_NB

?is_modulo@_Num_int_base@std@@$$Q2_NB:			; std::_Num_int_base::is_modulo
	.byte	0x1
	.rdata
	.comdat	any, ?is_integer@_Num_int_base@std@@$$Q2_NB

?is_integer@_Num_int_base@std@@$$Q2_NB:			; std::_Num_int_base::is_integer
	.byte	0x1
	.rdata
	.comdat	any, ?is_exact@_Num_int_base@std@@$$Q2_NB

?is_exact@_Num_int_base@std@@$$Q2_NB:			; std::_Num_int_base::is_exact
	.byte	0x1
	.rdata
	.comdat	any, ?is_bounded@_Num_int_base@std@@$$Q2_NB

?is_bounded@_Num_int_base@std@@$$Q2_NB:			; std::_Num_int_base::is_bounded
	.byte	0x1
	.rdata
	.comdat	any, ?radix@_Num_base@std@@$$Q2HB

?radix@_Num_base@std@@$$Q2HB:				; std::_Num_base::radix
	.word	0x0
	.rdata
	.comdat	any, ?min_exponent10@_Num_base@std@@$$Q2HB

?min_exponent10@_Num_base@std@@$$Q2HB:			; std::_Num_base::min_exponent10
	.word	0x0
	.rdata
	.comdat	any, ?min_exponent@_Num_base@std@@$$Q2HB

?min_exponent@_Num_base@std@@$$Q2HB:			; std::_Num_base::min_exponent
	.word	0x0
	.rdata
	.comdat	any, ?max_exponent10@_Num_base@std@@$$Q2HB

?max_exponent10@_Num_base@std@@$$Q2HB:			; std::_Num_base::max_exponent10
	.word	0x0
	.rdata
	.comdat	any, ?max_exponent@_Num_base@std@@$$Q2HB

?max_exponent@_Num_base@std@@$$Q2HB:			; std::_Num_base::max_exponent
	.word	0x0
	.rdata
	.comdat	any, ?max_digits10@_Num_base@std@@$$Q2HB

?max_digits10@_Num_base@std@@$$Q2HB:			; std::_Num_base::max_digits10
	.word	0x0
	.rdata
	.comdat	any, ?digits10@_Num_base@std@@$$Q2HB

?digits10@_Num_base@std@@$$Q2HB:			; std::_Num_base::digits10
	.word	0x0
	.rdata
	.comdat	any, ?digits@_Num_base@std@@$$Q2HB

?digits@_Num_base@std@@$$Q2HB:				; std::_Num_base::digits
	.word	0x0
	.rdata
	.comdat	any, ?round_style@_Num_base@std@@$$Q2W4float_round_style@2@B

?round_style@_Num_base@std@@$$Q2W4float_round_style@2@B: ; std::_Num_base::round_style
	.word	0x0
	.rdata
	.comdat	any, ?traps@_Num_base@std@@$$Q2_NB

?traps@_Num_base@std@@$$Q2_NB:				; std::_Num_base::traps
	.byte	0x0
	.rdata
	.comdat	any, ?tinyness_before@_Num_base@std@@$$Q2_NB

?tinyness_before@_Num_base@std@@$$Q2_NB:		; std::_Num_base::tinyness_before
	.byte	0x0
	.rdata
	.comdat	any, ?is_specialized@_Num_base@std@@$$Q2_NB

?is_specialized@_Num_base@std@@$$Q2_NB:			; std::_Num_base::is_specialized
	.byte	0x0
	.rdata
	.comdat	any, ?is_signed@_Num_base@std@@$$Q2_NB

?is_signed@_Num_base@std@@$$Q2_NB:			; std::_Num_base::is_signed
	.byte	0x0
	.rdata
	.comdat	any, ?is_modulo@_Num_base@std@@$$Q2_NB

?is_modulo@_Num_base@std@@$$Q2_NB:			; std::_Num_base::is_modulo
	.byte	0x0
	.rdata
	.comdat	any, ?is_integer@_Num_base@std@@$$Q2_NB

?is_integer@_Num_base@std@@$$Q2_NB:			; std::_Num_base::is_integer
	.byte	0x0
	.rdata
	.comdat	any, ?is_iec559@_Num_base@std@@$$Q2_NB

?is_iec559@_Num_base@std@@$$Q2_NB:			; std::_Num_base::is_iec559
	.byte	0x0
	.rdata
	.comdat	any, ?is_exact@_Num_base@std@@$$Q2_NB

?is_exact@_Num_base@std@@$$Q2_NB:			; std::_Num_base::is_exact
	.byte	0x0
	.rdata
	.comdat	any, ?is_bounded@_Num_base@std@@$$Q2_NB

?is_bounded@_Num_base@std@@$$Q2_NB:			; std::_Num_base::is_bounded
	.byte	0x0
	.rdata
	.comdat	any, ?has_signaling_NaN@_Num_base@std@@$$Q2_NB

?has_signaling_NaN@_Num_base@std@@$$Q2_NB:		; std::_Num_base::has_signaling_NaN
	.byte	0x0
	.rdata
	.comdat	any, ?has_quiet_NaN@_Num_base@std@@$$Q2_NB

?has_quiet_NaN@_Num_base@std@@$$Q2_NB:			; std::_Num_base::has_quiet_NaN
	.byte	0x0
	.rdata
	.comdat	any, ?has_infinity@_Num_base@std@@$$Q2_NB

?has_infinity@_Num_base@std@@$$Q2_NB:			; std::_Num_base::has_infinity
	.byte	0x0
	.rdata
	.comdat	any, ?has_denorm_loss@_Num_base@std@@$$Q2_NB

?has_denorm_loss@_Num_base@std@@$$Q2_NB:		; std::_Num_base::has_denorm_loss
	.byte	0x0
	.rdata
	.comdat	any, ?has_denorm@_Num_base@std@@$$Q2W4float_denorm_style@2@B

?has_denorm@_Num_base@std@@$$Q2W4float_denorm_style@2@B: ; std::_Num_base::has_denorm
	.word	0x0
.global	
	.bss
.local	,4
; Function compile flags: /Ogtpy
	.text
	.comdat	any, ??1_Mutex@std@@$$FQAM@XZ
.global	??1_Mutex@std@@$$FQAM@XZ			; std::_Mutex::~_Mutex
??1_Mutex@std@@$$FQAM@XZ:				; std::_Mutex::~_Mutex
;	.proc.def	D:V(I)

; Function Header:
; max stack depth = 1
; function size = 7 bytes
; local varsig tk = 0x0 
; Exception Information:
; 0 handlers, each consisting of filtered handlers

;	.formal.i4 0,"this$" SIG: Optional C Binding Modifier(token:0x68EBC0D).Optional C Binding Modifier(token:0x68EBC0F).ptr.valueType (token:0x68EBC12)

;	.proc.beg
; File c:\program files (x86)\microsoft visual studio 10.0\vc\include\yvals.h
; Line 759
	ldarg.0				; this$
	call		?_Mutex_dtor@_Mutex@std@@$$FCMXPAV12@@Z
; Line 760
	ret		
 .end ??1_Mutex@std@@$$FQAM@XZ				; std::_Mutex::~_Mutex
;	.proc.end.void
; Function compile flags: /Ogtpy
	.text
	.comdat	any, ?_Lock@_Mutex@std@@$$FQAMXXZ
.global	?_Lock@_Mutex@std@@$$FQAMXXZ			; std::_Mutex::_Lock
?_Lock@_Mutex@std@@$$FQAMXXZ:				; std::_Mutex::_Lock
;	.proc.def	D:V(I)

; Function Header:
; max stack depth = 1
; function size = 7 bytes
; local varsig tk = 0x0 
; Exception Information:
; 0 handlers, each consisting of filtered handlers

;	.formal.i4 0,"this$" SIG: Optional C Binding Modifier(token:0x68EBC0D).Optional C Binding Modifier(token:0x68EBC0F).ptr.valueType (token:0x68EBC12)

;	.proc.beg
; Line 764
	ldarg.0				; this$
	call		?_Mutex_Lock@_Mutex@std@@$$FCMXPAV12@@Z
; Line 765
	ret		
 .end ?_Lock@_Mutex@std@@$$FQAMXXZ			; std::_Mutex::_Lock
;	.proc.end.void
; Function compile flags: /Ogtpy
	.text
	.comdat	any, ?_Unlock@_Mutex@std@@$$FQAMXXZ
.global	?_Unlock@_Mutex@std@@$$FQAMXXZ			; std::_Mutex::_Unlock
?_Unlock@_Mutex@std@@$$FQAMXXZ:				; std::_Mutex::_Unlock
;	.proc.def	D:V(I)

; Function Header:
; max stack depth = 1
; function size = 7 bytes
; local varsig tk = 0x0 
; Exception Information:
; 0 handlers, each consisting of filtered handlers

;	.formal.i4 0,"this$" SIG: Optional C Binding Modifier(token:0x68EBC0D).Optional C Binding Modifier(token:0x68EBC0F).ptr.valueType (token:0x68EBC12)

;	.proc.beg
; Line 769
	ldarg.0				; this$
	call		?_Mutex_Unlock@_Mutex@std@@$$FCMXPAV12@@Z
; Line 770
	ret		
 .end ?_Unlock@_Mutex@std@@$$FQAMXXZ			; std::_Mutex::_Unlock
;	.proc.end.void
.global	
	.bss
.local	,4
; Function compile flags: /Ogtpy
	.text
	.comdat	any, ?abs@@$$FYMNN@Z
.global	?abs@@$$FYMNN@Z					; abs
?abs@@$$FYMNN@Z:					; abs
;	.proc.def	D:D(D)

; Function Header:
; max stack depth = 1
; function size = 7 bytes
; local varsig tk = 0x0 
; Exception Information:
; 0 handlers, each consisting of filtered handlers

;	.formal.r8 0,"_X$" SIG: r8

;	.proc.beg
; File c:\program files (x86)\microsoft visual studio 10.0\vc\include\math.h
; Line 496
	ldarg.0				; _X$
	call		System.Math.Abs(float64)
	ret		
 .end ?abs@@$$FYMNN@Z					; abs
;	.proc.end.r8
.global	
	.bss
.local	,4
; Function compile flags: /Ogtpy
	.text
	.comdat	any, ?_atexit_m@@$$J0YMHP6MXXZ@Z
.global	?_atexit_m@@$$J0YMHP6MXXZ@Z			; _atexit_m
?_atexit_m@@$$J0YMHP6MXXZ@Z:				; _atexit_m
;	.proc.def	D:I(I)

; Function Header:
; max stack depth = 1
; function size = 7 bytes
; local varsig tk = 0x0 
; Exception Information:
; 0 handlers, each consisting of filtered handlers

;	.formal.u4 0,"_Function$" SIG: fnptr

;	.proc.beg
; File c:\program files (x86)\microsoft visual studio 10.0\vc\include\stdlib.h
; Line 379
	ldarg.0				; _Function$
	call		?_atexit_m_appdomain@@$$J0YMHP6MXXZ@Z
	ret		
 .end ?_atexit_m@@$$J0YMHP6MXXZ@Z			; _atexit_m
;	.proc.end.i4
; Function compile flags: /Ogtpy
	.text
	.comdat	any, ?atexit@@$$FYMHP6MXXZ@Z
.global	?atexit@@$$FYMHP6MXXZ@Z				; atexit
?atexit@@$$FYMHP6MXXZ@Z:				; atexit
;	.proc.def	D:I(I)

; Function Header:
; max stack depth = 1
; function size = 7 bytes
; local varsig tk = 0x0 
; Exception Information:
; 0 handlers, each consisting of filtered handlers

;	.formal.u4 0,"_Function$" SIG: fnptr

;	.proc.beg
; Line 394
	ldarg.0				; _Function$
	call		?_atexit_m_appdomain@@$$J0YMHP6MXXZ@Z
	ret		
 .end ?atexit@@$$FYMHP6MXXZ@Z				; atexit
;	.proc.end.i4
.global	??_C@_0BC@EOODALEL@Unknown?5exception?$AA@	; `string'
.global	
	.bss
.local	$T62071,0
.local	,4
; File c:\program files (x86)\microsoft visual studio 10.0\vc\include\exception
	.rdata
	.comdat	any, ??_C@_0BC@EOODALEL@Unknown?5exception?$AA@

??_C@_0BC@EOODALEL@Unknown?5exception?$AA@:		; `string'
	.ascii	"Unknown exception\000"
; Function compile flags: /Ogtpy
	.text
	.comdat	any, ?what@exception@std@@$$FUBMPBDXZ
.global	?what@exception@std@@$$FUBMPBDXZ		; std::exception::what
?what@exception@std@@$$FUBMPBDXZ:			; std::exception::what
;	.proc.def	D:I(I)

; Function Header:
; max stack depth = 2
; function size = 17 bytes
; local varsig tk = 0x1100002D 
; Exception Information:
; 0 handlers, each consisting of filtered handlers

;	.formal.i4 0,"this$" SIG: Optional C Binding Modifier(token:0x68E6BD9).Optional C Binding Modifier(token:0x68E6BDB).ptr.Optional C Binding Modifier(token:0x68E6BDE).valueType (token:0x68E6BE0)

;	.proc.beg
; Line 158
	ldarg.0				; this$
	ldc.i.4		4		; i32 0x4
	add		
	ldind.i4	
	stloc.0				
	ldloc.0				
	brfalse.s	$LN3@what
	ldloc.0				
	br.s		$LN4@what
$LN3@what:
	ldsflda		??_C@_0BC@EOODALEL@Unknown?5exception?$AA@
$LN4@what:
	ret		
 .end ?what@exception@std@@$$FUBMPBDXZ			; std::exception::what
;	.proc.end.i4
.global	
.global	
.global	
	.bss
.local	$T62084,0
.local	,4
.local	,4
.local	,4
; Function compile flags: /Ogtpy
	.text
	.comdat	any, ?_Copy_str@exception@std@@$$FAAMXPBD@Z
.global	?_Copy_str@exception@std@@$$FAAMXPBD@Z		; std::exception::_Copy_str
?_Copy_str@exception@std@@$$FAAMXPBD@Z:			; std::exception::_Copy_str
;	.proc.def	D:V(II)

; Function Header:
; max stack depth = 3
; function size = 53 bytes
; local varsig tk = 0x11000031 
; Exception Information:
; 0 handlers, each consisting of filtered handlers

;	.formal.i4 0,"this$" SIG: Optional C Binding Modifier(token:0x68E6F51).Optional C Binding Modifier(token:0x68E6F53).ptr.valueType (token:0x68E6F56)
;	.formal.i4 1,"_What$" SIG: ptr.Optional C Binding Modifier(token:0x68E807A).Optional C Binding Modifier(token:0x68E807C).i1
;	.local.i4 1,"$T62080" SIG: ptr.void
;	.local.u4 2,"_Buf_size$14418" SIG: Optional C Binding Modifier(token:0x68E69FD).u4
;	.local.i4 0,"$T62078" SIG: ptr.Optional C Binding Modifier(token:0x68E807A).Optional C Binding Modifier(token:0x68E807C).i1

;	.proc.beg
; Line 164
	ldarg.1				; _What$
	brfalse.s	$LN1@Copy_str
; Line 166
	ldarg.1				; _What$
	stloc.0				; $T62078
	ldarg.1				; _What$
	ldind.i1	
	brfalse.s	$LN5@Copy_str
$LL6@Copy_str:
	ldloc.0				; $T62078
	ldc.i.1		1		; i32 0x1
	add		
	stloc.0				; $T62078
	ldloc.0				; $T62078
	ldind.i1	
	brtrue.s	$LL6@Copy_str
$LN5@Copy_str:
	ldloc.0				; $T62078
	ldarg.1				; _What$
	sub		
	ldc.i.1		1		; u32 0x1
	add		
	stloc.2				; _Buf_size$14418
; Line 168
	ldloc.2				; _Buf_size$14418
	call		?malloc@@$$J0YAPAXI@Z
	stloc.1				; $T62080
	ldarg.0				; this$
	ldc.i.4		4		; i32 0x4
	add		
	ldloc.1				; $T62080
	stind.i4	
; Line 170
	ldloc.1				; $T62080
	brfalse.s	$LN1@Copy_str
; Line 172
	ldloc.1				; $T62080
	ldloc.2				; _Buf_size$14418
	ldarg.1				; _What$
	call		?strcpy_s@@$$J0YAHPADIPBD@Z
	pop		
; Line 173
	ldarg.0				; this$
	ldc.i.8		8		; i32 0x8
	add		
	ldc.i.1		1		; u8 0x1
	stind.i1	
$LN1@Copy_str:
; Line 176
	ret		
 .end ?_Copy_str@exception@std@@$$FAAMXPBD@Z		; std::exception::_Copy_str
;	.proc.end.void
; Function compile flags: /Ogtpy
	.text
	.comdat	any, ?_Tidy@exception@std@@$$FAAMXXZ
.global	?_Tidy@exception@std@@$$FAAMXXZ			; std::exception::_Tidy
?_Tidy@exception@std@@$$FAAMXXZ:			; std::exception::_Tidy
;	.proc.def	D:V(I)

; Function Header:
; max stack depth = 2
; function size = 26 bytes
; local varsig tk = 0x0 
; Exception Information:
; 0 handlers, each consisting of filtered handlers

;	.formal.i4 0,"this$" SIG: Optional C Binding Modifier(token:0x68E6F51).Optional C Binding Modifier(token:0x68E6F53).ptr.valueType (token:0x68E6F56)

;	.proc.beg
; Line 180
	ldarg.0				; this$
	ldc.i.8		8		; i32 0x8
	add		
	ldind.u1	
	brfalse.s	$LN1@Tidy
; Line 182
	ldarg.0				; this$
	ldc.i.4		4		; i32 0x4
	add		
	ldind.i4	
	call		?free@@$$J0YAXPAX@Z
$LN1@Tidy:
; Line 185
	ldarg.0				; this$
	ldc.i.4		4		; i32 0x4
	add		
	ldc.i.0		0		; i32 0x0
	stind.i4	
; Line 186
	ldarg.0				; this$
	ldc.i.8		8		; i32 0x8
	add		
	ldc.i.0		0		; u8 0x0
	stind.i1	
; Line 187
	ret		
 .end ?_Tidy@exception@std@@$$FAAMXXZ			; std::exception::_Tidy
;	.proc.end.void
.global	
.global	
	.bss
.local	,4
.local	,4
; Function compile flags: /Ogtpy
	.text
	.comdat	any, ??0_Exception_ptr@std@@$$FQAM@ABV01@@Z
.global	??0_Exception_ptr@std@@$$FQAM@ABV01@@Z		; std::_Exception_ptr::_Exception_ptr
??0_Exception_ptr@std@@$$FQAM@ABV01@@Z:			; std::_Exception_ptr::_Exception_ptr
;	.proc.def	D:I(II)

; Function Header:
; max stack depth = 2
; function size = 9 bytes
; local varsig tk = 0x0 
; Exception Information:
; 0 handlers, each consisting of filtered handlers

;	.formal.i4 1,"_Rhs$" SIG: Optional C Binding Modifier(token:0x68E61AD).ptr.Optional C Binding Modifier(token:0x68E61B1).valueType (token:0x68E61B3)
;	.formal.i4 0,"this$" SIG: Optional C Binding Modifier(token:0x68E6429).Optional C Binding Modifier(token:0x68E642B).ptr.valueType (token:0x68E642E)

;	.proc.beg
; Line 429
	ldarg.0				; this$
	ldarg.1				; _Rhs$
	call		?__ExceptionPtrCopy@@$$FYMXPAXPBX@Z
; Line 430
	ldarg.0				; this$
	ret		
 .end ??0_Exception_ptr@std@@$$FQAM@ABV01@@Z		; std::_Exception_ptr::_Exception_ptr
;	.proc.end.i4
.global	
.global	
	.bss
.local	,4
.local	,4
; Function compile flags: /Ogtpy
	.text
	.comdat	any, ??2@$$FYMPAXIPAX@Z
.global	??2@$$FYMPAXIPAX@Z				; operator new
??2@$$FYMPAXIPAX@Z:					; operator new
;	.proc.def	D:I(II)

; Function Header:
; max stack depth = 1
; function size = 2 bytes
; local varsig tk = 0x0 
; Exception Information:
; 0 handlers, each consisting of filtered handlers

;	.formal.i4 1,"_Where$" SIG: ptr.void

;	.proc.beg
; File c:\program files (x86)\microsoft visual studio 10.0\vc\include\new
; Line 57
	ldarg.1				; _Where$
	ret		
 .end ??2@$$FYMPAXIPAX@Z				; operator new
;	.proc.end.i4
; Function compile flags: /Ogtpy
	.text
	.comdat	any, ??3@$$FYMXPAX0@Z
.global	??3@$$FYMXPAX0@Z				; operator delete
??3@$$FYMXPAX0@Z:					; operator delete
;	.proc.def	D:V(II)

; Function Header:
; max stack depth = 0
; function size = 1 bytes
; local varsig tk = 0x0 
; Exception Information:
; 0 handlers, each consisting of filtered handlers


;	.proc.beg
; Line 62
	ret		
 .end ??3@$$FYMXPAX0@Z					; operator delete
;	.proc.end.void
.global	
.global	
	.bss
.local	$T62102,0
.local	,4
.local	,4
; Function compile flags: /Ogtpy
	.text
	.comdat	any, ?wmemcpy@@$$J0YMPA_WPA_WPB_WI@Z
.global	?wmemcpy@@$$J0YMPA_WPA_WPB_WI@Z			; wmemcpy
?wmemcpy@@$$J0YMPA_WPA_WPB_WI@Z:			; wmemcpy
;	.proc.def	D:I(III)

; Function Header:
; max stack depth = 4
; function size = 11 bytes
; local varsig tk = 0x11000038 
; Exception Information:
; 0 handlers, each consisting of filtered handlers

;	.formal.u4 2,"_N$" SIG: u4
;	.formal.i4 1,"_S2$" SIG: ptr.Optional C Binding Modifier(token:0x68E95FE).char
;	.formal.i4 0,"_S1$" SIG: ptr.char
;	.local.i4 0,"$T62099" SIG: ptr.char

;	.proc.beg
; File c:\program files (x86)\microsoft visual studio 10.0\vc\include\wchar.h
; Line 1213
	ldarg.0				; _S1$
	stloc.0				; $T62099
	ldloc.0				; $T62099
	ldarg.1				; _S2$
	ldarg.2				; _N$
	ldc.i.1		1		; u32 0x1
	shl		
	cpblk		
	ldloc.0				; $T62099
	ret		
 .end ?wmemcpy@@$$J0YMPA_WPA_WPB_WI@Z			; wmemcpy
;	.proc.end.i4
; Function compile flags: /Ogtpy
	.text
	.comdat	any, ?wmemmove@@$$J0YMPA_WPA_WPB_WI@Z
.global	?wmemmove@@$$J0YMPA_WPA_WPB_WI@Z		; wmemmove
?wmemmove@@$$J0YMPA_WPA_WPB_WI@Z:			; wmemmove
;	.proc.def	D:I(III)

; Function Header:
; max stack depth = 4
; function size = 11 bytes
; local varsig tk = 0x0 
; Exception Information:
; 0 handlers, each consisting of filtered handlers

;	.formal.u4 2,"_N$" SIG: u4
;	.formal.i4 1,"_S2$" SIG: ptr.Optional C Binding Modifier(token:0x68E95FE).char
;	.formal.i4 0,"_S1$" SIG: ptr.char

;	.proc.beg
; Line 1223
	ldarg.0				; _S1$
	ldarg.1				; _S2$
	ldarg.2				; _N$
	ldc.i.1		1		; u32 0x1
	shl		
	call		?memmove@@$$J0YAPAXPAXPBXI@Z
	ret		
 .end ?wmemmove@@$$J0YMPA_WPA_WPB_WI@Z			; wmemmove
;	.proc.end.i4
	.bss
.local	$T62111,0
; Function compile flags: /Ogtpy
	.text
	.comdat	any, ?copy@?$char_traits@_W@std@@$$FSMPA_WPA_WPB_WI@Z
.global	?copy@?$char_traits@_W@std@@$$FSMPA_WPA_WPB_WI@Z ; std::char_traits<wchar_t>::copy
?copy@?$char_traits@_W@std@@$$FSMPA_WPA_WPB_WI@Z:	; std::char_traits<wchar_t>::copy
;	.proc.def	D:I(III)

; Function Header:
; max stack depth = 4
; function size = 11 bytes
; local varsig tk = 0x11000038 
; Exception Information:
; 0 handlers, each consisting of filtered handlers

;	.formal.u4 2,"_Count$" SIG: u4
;	.formal.i4 1,"_First2$" SIG: ptr.Optional C Binding Modifier(token:0x68E95FE).char
;	.formal.i4 0,"_First1$" SIG: ptr.char
;	.local.i4 0,"$T62110" SIG: ptr.char

;	.proc.beg
; File c:\program files (x86)\microsoft visual studio 10.0\vc\include\iosfwd
; Line 303
	ldarg.0				; _First1$
	stloc.0				; $T62110
	ldloc.0				; $T62110
	ldarg.1				; _First2$
	ldarg.2				; _Count$
	ldc.i.1		1		; u32 0x1
	shl		
	cpblk		
	ldloc.0				; $T62110
	ret		
 .end ?copy@?$char_traits@_W@std@@$$FSMPA_WPA_WPB_WI@Z	; std::char_traits<wchar_t>::copy
;	.proc.end.i4
; Function compile flags: /Ogtpy
	.text
	.comdat	any, ?move@?$char_traits@_W@std@@$$FSMPA_WPA_WPB_WI@Z
.global	?move@?$char_traits@_W@std@@$$FSMPA_WPA_WPB_WI@Z ; std::char_traits<wchar_t>::move
?move@?$char_traits@_W@std@@$$FSMPA_WPA_WPB_WI@Z:	; std::char_traits<wchar_t>::move
;	.proc.def	D:I(III)

; Function Header:
; max stack depth = 4
; function size = 11 bytes
; local varsig tk = 0x0 
; Exception Information:
; 0 handlers, each consisting of filtered handlers

;	.formal.u4 2,"_Count$" SIG: u4
;	.formal.i4 1,"_First2$" SIG: ptr.Optional C Binding Modifier(token:0x68E95FE).char
;	.formal.i4 0,"_First1$" SIG: ptr.char

;	.proc.beg
; Line 323
	ldarg.0				; _First1$
	ldarg.1				; _First2$
	ldarg.2				; _Count$
	ldc.i.1		1		; u32 0x1
	shl		
	call		?memmove@@$$J0YAPAXPAXPBXI@Z
	ret		
 .end ?move@?$char_traits@_W@std@@$$FSMPA_WPA_WPB_WI@Z	; std::char_traits<wchar_t>::move
;	.proc.end.i4
.global	
.global	
	.bss
.local	,4
.local	,4
; Function compile flags: /Ogtpy
	.text
	.comdat	any, ?assign@?$char_traits@_W@std@@$$FSMXAA_WAB_W@Z
.global	?assign@?$char_traits@_W@std@@$$FSMXAA_WAB_W@Z	; std::char_traits<wchar_t>::assign
?assign@?$char_traits@_W@std@@$$FSMXAA_WAB_W@Z:		; std::char_traits<wchar_t>::assign
;	.proc.def	D:V(II)

; Function Header:
; max stack depth = 2
; function size = 5 bytes
; local varsig tk = 0x0 
; Exception Information:
; 0 handlers, each consisting of filtered handlers

;	.formal.i4 1,"_Right$" SIG: Optional C Binding Modifier(token:0x68E4AA5).ptr.Optional C Binding Modifier(token:0x68E4AA9).char
;	.formal.i4 0,"_Left$" SIG: Optional C Binding Modifier(token:0x68E4A25).ptr.char

;	.proc.beg
; Line 333
	ldarg.0				; _Left$
	ldarg.1				; _Right$
	ldind.u2	
	stind.i2	
; Line 334
	ret		
 .end ?assign@?$char_traits@_W@std@@$$FSMXAA_WAB_W@Z	; std::char_traits<wchar_t>::assign
;	.proc.end.void
.global	
	.bss
.local	,4
; Function compile flags: /Ogtpy
	.text
	.comdat	any, ?to_char_type@?$char_traits@_W@std@@$$FSM_WABG@Z
.global	?to_char_type@?$char_traits@_W@std@@$$FSM_WABG@Z ; std::char_traits<wchar_t>::to_char_type
?to_char_type@?$char_traits@_W@std@@$$FSM_WABG@Z:	; std::char_traits<wchar_t>::to_char_type
;	.proc.def	D:I(I)

; Function Header:
; max stack depth = 1
; function size = 3 bytes
; local varsig tk = 0x0 
; Exception Information:
; 0 handlers, each consisting of filtered handlers

;	.formal.i4 0,"_Meta$" SIG: Optional C Binding Modifier(token:0x68E4939).ptr.Optional C Binding Modifier(token:0x68E493D).u2

;	.proc.beg
; Line 348
	ldarg.0				; _Meta$
	ldind.u2	
	ret		
 .end ?to_char_type@?$char_traits@_W@std@@$$FSM_WABG@Z	; std::char_traits<wchar_t>::to_char_type
;	.proc.end.u2
; Function compile flags: /Ogtpy
	.text
	.comdat	any, ?to_int_type@?$char_traits@_W@std@@$$FSMGAB_W@Z
.global	?to_int_type@?$char_traits@_W@std@@$$FSMGAB_W@Z	; std::char_traits<wchar_t>::to_int_type
?to_int_type@?$char_traits@_W@std@@$$FSMGAB_W@Z:	; std::char_traits<wchar_t>::to_int_type
;	.proc.def	D:I(I)

; Function Header:
; max stack depth = 1
; function size = 3 bytes
; local varsig tk = 0x0 
; Exception Information:
; 0 handlers, each consisting of filtered handlers

;	.formal.i4 0,"_Ch$" SIG: Optional C Binding Modifier(token:0x68E4AA5).ptr.Optional C Binding Modifier(token:0x68E4AA9).char

;	.proc.beg
; Line 353
	ldarg.0				; _Ch$
	ldind.u2	
	ret		
 .end ?to_int_type@?$char_traits@_W@std@@$$FSMGAB_W@Z	; std::char_traits<wchar_t>::to_int_type
;	.proc.end.u2
; Function compile flags: /Ogtpy
	.text
	.comdat	any, ?eq_int_type@?$char_traits@_W@std@@$$FSM_NABG0@Z
.global	?eq_int_type@?$char_traits@_W@std@@$$FSM_NABG0@Z ; std::char_traits<wchar_t>::eq_int_type
?eq_int_type@?$char_traits@_W@std@@$$FSM_NABG0@Z:	; std::char_traits<wchar_t>::eq_int_type
;	.proc.def	D:I(II)

; Function Header:
; max stack depth = 2
; function size = 8 bytes
; local varsig tk = 0x0 
; Exception Information:
; 0 handlers, each consisting of filtered handlers

;	.formal.i4 1,"_Right$" SIG: Optional C Binding Modifier(token:0x68E4939).ptr.Optional C Binding Modifier(token:0x68E493D).u2
;	.formal.i4 0,"_Left$" SIG: Optional C Binding Modifier(token:0x68E4939).ptr.Optional C Binding Modifier(token:0x68E493D).u2

;	.proc.beg
; Line 359
	ldarg.0				; _Left$
	ldind.u2	
	ldarg.1				; _Right$
	ldind.u2	
	ceq		
	conv.u1		
	ret		
 .end ?eq_int_type@?$char_traits@_W@std@@$$FSM_NABG0@Z	; std::char_traits<wchar_t>::eq_int_type
;	.proc.end.u1
; Function compile flags: /Ogtpy
	.text
	.comdat	any, ?eof@?$char_traits@_W@std@@$$FSMGXZ
.global	?eof@?$char_traits@_W@std@@$$FSMGXZ		; std::char_traits<wchar_t>::eof
?eof@?$char_traits@_W@std@@$$FSMGXZ:			; std::char_traits<wchar_t>::eof
;	.proc.def	D:I()

; Function Header:
; max stack depth = 1
; function size = 6 bytes
; local varsig tk = 0x0 
; Exception Information:
; 0 handlers, each consisting of filtered handlers


;	.proc.beg
; Line 369
	ldc.i4		65535		; u16 0xffff
	ret		
 .end ?eof@?$char_traits@_W@std@@$$FSMGXZ		; std::char_traits<wchar_t>::eof
;	.proc.end.u2
.global	
.global	
	.bss
.local	$T62140,0
.local	,4
.local	,4
; Function compile flags: /Ogtpy
	.text
	.comdat	any, ?copy@?$char_traits@G@std@@$$FSMPAGPAGPBGI@Z
.global	?copy@?$char_traits@G@std@@$$FSMPAGPAGPBGI@Z	; std::char_traits<unsigned short>::copy
?copy@?$char_traits@G@std@@$$FSMPAGPAGPBGI@Z:		; std::char_traits<unsigned short>::copy
;	.proc.def	D:I(III)

; Function Header:
; max stack depth = 4
; function size = 11 bytes
; local varsig tk = 0x1100003E 
; Exception Information:
; 0 handlers, each consisting of filtered handlers

;	.formal.u4 2,"_Count$" SIG: u4
;	.formal.i4 1,"_First2$" SIG: ptr.Optional C Binding Modifier(token:0x68E47CE).u2
;	.formal.i4 0,"_First1$" SIG: ptr.u2
;	.local.i4 0,"$T62137" SIG: ptr.u2

;	.proc.beg
; Line 400
	ldarg.0				; _First1$
	stloc.0				; $T62137
	ldloc.0				; $T62137
	ldarg.1				; _First2$
	ldarg.2				; _Count$
	ldc.i.1		1		; u32 0x1
	shl		
	cpblk		
	ldloc.0				; $T62137
	ret		
 .end ?copy@?$char_traits@G@std@@$$FSMPAGPAGPBGI@Z	; std::char_traits<unsigned short>::copy
;	.proc.end.i4
; Function compile flags: /Ogtpy
	.text
	.comdat	any, ?to_char_type@?$char_traits@G@std@@$$FSMGABG@Z
.global	?to_char_type@?$char_traits@G@std@@$$FSMGABG@Z	; std::char_traits<unsigned short>::to_char_type
?to_char_type@?$char_traits@G@std@@$$FSMGABG@Z:		; std::char_traits<unsigned short>::to_char_type
;	.proc.def	D:I(I)

; Function Header:
; max stack depth = 1
; function size = 3 bytes
; local varsig tk = 0x0 
; Exception Information:
; 0 handlers, each consisting of filtered handlers

;	.formal.i4 0,"_Meta$" SIG: Optional C Binding Modifier(token:0x68E4939).ptr.Optional C Binding Modifier(token:0x68E493D).u2

;	.proc.beg
; Line 447
	ldarg.0				; _Meta$
	ldind.u2	
	ret		
 .end ?to_char_type@?$char_traits@G@std@@$$FSMGABG@Z	; std::char_traits<unsigned short>::to_char_type
;	.proc.end.u2
; Function compile flags: /Ogtpy
	.text
	.comdat	any, ?to_int_type@?$char_traits@G@std@@$$FSMGABG@Z
.global	?to_int_type@?$char_traits@G@std@@$$FSMGABG@Z	; std::char_traits<unsigned short>::to_int_type
?to_int_type@?$char_traits@G@std@@$$FSMGABG@Z:		; std::char_traits<unsigned short>::to_int_type
;	.proc.def	D:I(I)

; Function Header:
; max stack depth = 1
; function size = 3 bytes
; local varsig tk = 0x0 
; Exception Information:
; 0 handlers, each consisting of filtered handlers

;	.formal.i4 0,"_Ch$" SIG: Optional C Binding Modifier(token:0x68E4939).ptr.Optional C Binding Modifier(token:0x68E493D).u2

;	.proc.beg
; Line 452
	ldarg.0				; _Ch$
	ldind.u2	
	ret		
 .end ?to_int_type@?$char_traits@G@std@@$$FSMGABG@Z	; std::char_traits<unsigned short>::to_int_type
;	.proc.end.u2
; Function compile flags: /Ogtpy
	.text
	.comdat	any, ?eq_int_type@?$char_traits@G@std@@$$FSM_NABG0@Z
.global	?eq_int_type@?$char_traits@G@std@@$$FSM_NABG0@Z	; std::char_traits<unsigned short>::eq_int_type
?eq_int_type@?$char_traits@G@std@@$$FSM_NABG0@Z:	; std::char_traits<unsigned short>::eq_int_type
;	.proc.def	D:I(II)

; Function Header:
; max stack depth = 2
; function size = 8 bytes
; local varsig tk = 0x0 
; Exception Information:
; 0 handlers, each consisting of filtered handlers

;	.formal.i4 1,"_Right$" SIG: Optional C Binding Modifier(token:0x68E4939).ptr.Optional C Binding Modifier(token:0x68E493D).u2
;	.formal.i4 0,"_Left$" SIG: Optional C Binding Modifier(token:0x68E4939).ptr.Optional C Binding Modifier(token:0x68E493D).u2

;	.proc.beg
; Line 458
	ldarg.0				; _Left$
	ldind.u2	
	ldarg.1				; _Right$
	ldind.u2	
	ceq		
	conv.u1		
	ret		
 .end ?eq_int_type@?$char_traits@G@std@@$$FSM_NABG0@Z	; std::char_traits<unsigned short>::eq_int_type
;	.proc.end.u1
; Function compile flags: /Ogtpy
	.text
	.comdat	any, ?eof@?$char_traits@G@std@@$$FSMGXZ
.global	?eof@?$char_traits@G@std@@$$FSMGXZ		; std::char_traits<unsigned short>::eof
?eof@?$char_traits@G@std@@$$FSMGXZ:			; std::char_traits<unsigned short>::eof
;	.proc.def	D:I()

; Function Header:
; max stack depth = 1
; function size = 6 bytes
; local varsig tk = 0x0 
; Exception Information:
; 0 handlers, each consisting of filtered handlers


;	.proc.beg
; Line 468
	ldc.i4		65535		; u16 0xffff
	ret		
 .end ?eof@?$char_traits@G@std@@$$FSMGXZ		; std::char_traits<unsigned short>::eof
;	.proc.end.u2
.global	
	.bss
.local	$T62155,0
.local	,4
; Function compile flags: /Ogtpy
	.text
	.comdat	any, ?copy@?$char_traits@D@std@@$$FSMPADPADPBDI@Z
.global	?copy@?$char_traits@D@std@@$$FSMPADPADPBDI@Z	; std::char_traits<char>::copy
?copy@?$char_traits@D@std@@$$FSMPADPADPBDI@Z:		; std::char_traits<char>::copy
;	.proc.def	D:I(III)

; Function Header:
; max stack depth = 3
; function size = 9 bytes
; local varsig tk = 0x11000040 
; Exception Information:
; 0 handlers, each consisting of filtered handlers

;	.formal.u4 2,"_Count$" SIG: u4
;	.formal.i4 1,"_First2$" SIG: ptr.Optional C Binding Modifier(token:0x68E807A).Optional C Binding Modifier(token:0x68E807C).i1
;	.formal.i4 0,"_First1$" SIG: ptr.Optional C Binding Modifier(token:0x68E7F3A).i1
;	.local.i4 0,"$T62153" SIG: ptr.Optional C Binding Modifier(token:0x68E7F3A).i1

;	.proc.beg
; Line 497
	ldarg.0				; _First1$
	stloc.0				; $T62153
	ldloc.0				; $T62153
	ldarg.1				; _First2$
	ldarg.2				; _Count$
	cpblk		
	ldloc.0				; $T62153
	ret		
 .end ?copy@?$char_traits@D@std@@$$FSMPADPADPBDI@Z	; std::char_traits<char>::copy
;	.proc.end.i4
.global	
	.bss
.local	,4
; Function compile flags: /Ogtpy
	.text
	.comdat	any, ?to_char_type@?$char_traits@D@std@@$$FSMDABH@Z
.global	?to_char_type@?$char_traits@D@std@@$$FSMDABH@Z	; std::char_traits<char>::to_char_type
?to_char_type@?$char_traits@D@std@@$$FSMDABH@Z:		; std::char_traits<char>::to_char_type
;	.proc.def	D:I(I)

; Function Header:
; max stack depth = 1
; function size = 4 bytes
; local varsig tk = 0x0 
; Exception Information:
; 0 handlers, each consisting of filtered handlers

;	.formal.i4 0,"_Meta$" SIG: Optional C Binding Modifier(token:0x68E4001).ptr.Optional C Binding Modifier(token:0x68E4005).i4

;	.proc.beg
; Line 542
	ldarg.0				; _Meta$
	ldind.i4	
	conv.i1		
	ret		
 .end ?to_char_type@?$char_traits@D@std@@$$FSMDABH@Z	; std::char_traits<char>::to_char_type
;	.proc.end.i1
.global	
	.bss
.local	,4
; Function compile flags: /Ogtpy
	.text
	.comdat	any, ?to_int_type@?$char_traits@D@std@@$$FSMHABD@Z
.global	?to_int_type@?$char_traits@D@std@@$$FSMHABD@Z	; std::char_traits<char>::to_int_type
?to_int_type@?$char_traits@D@std@@$$FSMHABD@Z:		; std::char_traits<char>::to_int_type
;	.proc.def	D:I(I)

; Function Header:
; max stack depth = 1
; function size = 4 bytes
; local varsig tk = 0x0 
; Exception Information:
; 0 handlers, each consisting of filtered handlers

;	.formal.i4 0,"_Ch$" SIG: Optional C Binding Modifier(token:0x68E4321).ptr.Optional C Binding Modifier(token:0x68E4325).Optional C Binding Modifier(token:0x68E4327).i1

;	.proc.beg
; Line 547
	ldarg.0				; _Ch$
	ldind.i1	
	conv.u1		
	ret		
 .end ?to_int_type@?$char_traits@D@std@@$$FSMHABD@Z	; std::char_traits<char>::to_int_type
;	.proc.end.i4
; Function compile flags: /Ogtpy
	.text
	.comdat	any, ?eq_int_type@?$char_traits@D@std@@$$FSM_NABH0@Z
.global	?eq_int_type@?$char_traits@D@std@@$$FSM_NABH0@Z	; std::char_traits<char>::eq_int_type
?eq_int_type@?$char_traits@D@std@@$$FSM_NABH0@Z:	; std::char_traits<char>::eq_int_type
;	.proc.def	D:I(II)

; Function Header:
; max stack depth = 2
; function size = 8 bytes
; local varsig tk = 0x0 
; Exception Information:
; 0 handlers, each consisting of filtered handlers

;	.formal.i4 1,"_Right$" SIG: Optional C Binding Modifier(token:0x68E4001).ptr.Optional C Binding Modifier(token:0x68E4005).i4
;	.formal.i4 0,"_Left$" SIG: Optional C Binding Modifier(token:0x68E4001).ptr.Optional C Binding Modifier(token:0x68E4005).i4

;	.proc.beg
; Line 553
	ldarg.0				; _Left$
	ldind.i4	
	ldarg.1				; _Right$
	ldind.i4	
	ceq		
	conv.u1		
	ret		
 .end ?eq_int_type@?$char_traits@D@std@@$$FSM_NABH0@Z	; std::char_traits<char>::eq_int_type
;	.proc.end.u1
; Function compile flags: /Ogtpy
	.text
	.comdat	any, ?eof@?$char_traits@D@std@@$$FSMHXZ
.global	?eof@?$char_traits@D@std@@$$FSMHXZ		; std::char_traits<char>::eof
?eof@?$char_traits@D@std@@$$FSMHXZ:			; std::char_traits<char>::eof
;	.proc.def	D:I()

; Function Header:
; max stack depth = 1
; function size = 2 bytes
; local varsig tk = 0x0 
; Exception Information:
; 0 handlers, each consisting of filtered handlers


;	.proc.beg
; Line 563
	ldc.i.-1	-1		; i32 0xffffffff
	ret		
 .end ?eof@?$char_traits@D@std@@$$FSMHXZ		; std::char_traits<char>::eof
;	.proc.end.i4
.global	
.global	
	.bss
.local	,4
.local	,4
; Function compile flags: /Ogtpy
	.text
	.comdat	any, ??0_Container_base12@std@@$$FQAM@ABU01@@Z
.global	??0_Container_base12@std@@$$FQAM@ABU01@@Z	; std::_Container_base12::_Container_base12
??0_Container_base12@std@@$$FQAM@ABU01@@Z:		; std::_Container_base12::_Container_base12
;	.proc.def	D:I(II)

; Function Header:
; max stack depth = 2
; function size = 5 bytes
; local varsig tk = 0x0 
; Exception Information:
; 0 handlers, each consisting of filtered handlers

;	.formal.i4 0,"this$" SIG: Optional C Binding Modifier(token:0x68D8CB5).Optional C Binding Modifier(token:0x68D8CB7).ptr.valueType (token:0x68D8CBA)

;	.proc.beg
; File c:\program files (x86)\microsoft visual studio 10.0\vc\include\xutility
; Line 82
	ldarg.0				; this$
	ldc.i.0		0		; i32 0x0
	stind.i4	
; Line 83
	ldarg.0				; this$
	ret		
 .end ??0_Container_base12@std@@$$FQAM@ABU01@@Z		; std::_Container_base12::_Container_base12
;	.proc.end.i4
.global	
.global	
	.bss
.local	,4
.local	,4
; Function compile flags: /Ogtpy
	.text
	.comdat	any, ?_Adopt@_Iterator_base12@std@@$$FQAMXPBU_Container_base12@2@@Z
.global	?_Adopt@_Iterator_base12@std@@$$FQAMXPBU_Container_base12@2@@Z ; std::_Iterator_base12::_Adopt
?_Adopt@_Iterator_base12@std@@$$FQAMXPBU_Container_base12@2@@Z: ; std::_Iterator_base12::_Adopt
;	.proc.def	D:V(II)

; Function Header:
; max stack depth = 2
; function size = 8 bytes
; local varsig tk = 0x0 
; Exception Information:
; 0 handlers, each consisting of filtered handlers

;	.formal.i4 0,"this$" SIG: Optional C Binding Modifier(token:0x68D8A65).Optional C Binding Modifier(token:0x68D8A67).ptr.valueType (token:0x68D8A6A)
;	.formal.i4 1,"_Parent$" SIG: ptr.Optional C Binding Modifier(token:0x68D893A).valueType (token:0x68D893C)

;	.proc.beg
; Line 137
	ldarg.1				; _Parent$
	brfalse.s	$LN1@Adopt
; Line 151
	ldarg.0				; this$
	ldarg.1				; _Parent$
	ldind.i4	
	stind.i4	
$LN1@Adopt:
; Line 154
	ret		
 .end ?_Adopt@_Iterator_base12@std@@$$FQAMXPBU_Container_base12@2@@Z ; std::_Iterator_base12::_Adopt
;	.proc.end.void
.global	
.global	
	.bss
.local	,4
.local	,4
; Function compile flags: /Ogtpy
	.text
	.comdat	any, ??0?$allocator@X@std@@$$FQAM@ABV01@@Z
.global	??0?$allocator@X@std@@$$FQAM@ABV01@@Z		; std::allocator<void>::allocator<void>
??0?$allocator@X@std@@$$FQAM@ABV01@@Z:			; std::allocator<void>::allocator<void>
;	.proc.def	D:I(II)

; Function Header:
; max stack depth = 1
; function size = 2 bytes
; local varsig tk = 0x0 
; Exception Information:
; 0 handlers, each consisting of filtered handlers

;	.formal.i4 0,"this$" SIG: Optional C Binding Modifier(token:0x68D832D).Optional C Binding Modifier(token:0x68D832F).ptr.valueType (token:0x68D8332)

;	.proc.beg
; File c:\program files (x86)\microsoft visual studio 10.0\vc\include\xmemory
; Line 244
	ldarg.0				; this$
	ret		
 .end ??0?$allocator@X@std@@$$FQAM@ABV01@@Z		; std::allocator<void>::allocator<void>
;	.proc.end.i4
.global	
.global	
	.bss
.local	,4
.local	,4
; Function compile flags: /Ogtpy
	.text
	.comdat	any, ??4_Timevec@std@@$$FQAMAAV01@ABV01@@Z
.global	??4_Timevec@std@@$$FQAMAAV01@ABV01@@Z		; std::_Timevec::operator=
??4_Timevec@std@@$$FQAMAAV01@ABV01@@Z:			; std::_Timevec::operator=
;	.proc.def	D:I(II)

; Function Header:
; max stack depth = 2
; function size = 9 bytes
; local varsig tk = 0x0 
; Exception Information:
; 0 handlers, each consisting of filtered handlers

;	.formal.i4 1,"_Right$" SIG: Optional C Binding Modifier(token:0x68D4BC9).ptr.Optional C Binding Modifier(token:0x68D4BCD).valueType (token:0x68D4BCF)
;	.formal.i4 0,"this$" SIG: Optional C Binding Modifier(token:0x68D4C59).Optional C Binding Modifier(token:0x68D4C5B).ptr.valueType (token:0x68D4C5E)

;	.proc.beg
; File c:\program files (x86)\microsoft visual studio 10.0\vc\include\xlocinfo
; Line 37
	ldarg.0				; this$
	ldarg.1				; _Right$
	ldind.i4	
	stind.i4	
; Line 38
	ldarg.1				; _Right$
	ldc.i.0		0		; i32 0x0
	stind.i4	
; Line 39
	ldarg.0				; this$
	ret		
 .end ??4_Timevec@std@@$$FQAMAAV01@ABV01@@Z		; std::_Timevec::operator=
;	.proc.end.i4
.global	
.global	
.global	
	.bss
.local	$T62203,0
.local	,4
.local	,4
.local	,4
; Function compile flags: /Ogtpy
	.text
	.comdat	any, ?_Incref@facet@locale@std@@$$FQAMXXZ
.global	?_Incref@facet@locale@std@@$$FQAMXXZ		; std::locale::facet::_Incref
?_Incref@facet@locale@std@@$$FQAMXXZ:			; std::locale::facet::_Incref
;	.proc.def	D:V(I)

; Function Header:
; max stack depth = 4
; function size = 54 bytes
; local varsig tk = 0x1100004E 
; Exception Information:
; 2 handlers, each consisting of filtered handlers

;	.formal.i4 0,"this$" SIG: Optional C Binding Modifier(token:0x68D1791).Optional C Binding Modifier(token:0x68D1793).ptr.valueType (token:0x68D1796)
;	.local.i4 1,"_LockKind$24248" SIG: i4
;	.local.u1 2,"_MustReleaseLock$24247" SIG: bool

;	.proc.beg
; File c:\program files (x86)\microsoft visual studio 10.0\vc\include\xlocale
; Line 112
	ldc.i.0		0		; u8 0x0
	stloc.2				; _MustReleaseLock$24247
	ldc.i.0		0		; i32 0x0
	stloc.1				; _LockKind$24248
	call		?PrepareConstrainedRegions@RuntimeHelpers@CompilerServices@Runtime@System@@$$FSMXXZ
$LN15@Incref:
	call		?PrepareConstrainedRegions@RuntimeHelpers@CompilerServices@Runtime@System@@$$FSMXXZ
$LN16@Incref:
$LN11@Incref:
	leave.s		__tryend$?_Incref@facet@locale@std@@$$FQAMXXZ$1
__catch$?_Incref@facet@locale@std@@$$FQAMXXZ$0:
	ldloc.1				; _LockKind$24248
	call		?_Lockit_ctor@_Lockit@std@@$$FSAXH@Z
	ldc.i.1		1		; u8 0x1
	stloc.2				; _MustReleaseLock$24247
	endfinally	
__tryend$?_Incref@facet@locale@std@@$$FQAMXXZ$1:
; Line 113
	ldarg.0				; this$
	ldc.i.4		4		; i32 0x4
	add		
	ldind.i4	
	stloc.0				
	ldloc.0				
	ldc.i.-1	-1		; u32 0xffffffff
	bge.un.s	$LN2@Incref
; Line 114
	ldarg.0				; this$
	ldc.i.4		4		; i32 0x4
	add		
	ldloc.0				
	ldc.i.1		1		; u32 0x1
	add		
	stind.i4	
$LN2@Incref:
; Line 115
	leave.s		__tryend$?_Incref@facet@locale@std@@$$FQAMXXZ$3
__catch$?_Incref@facet@locale@std@@$$FQAMXXZ$2:
	ldloc.2				; _MustReleaseLock$24247
	brfalse.s	$LN1@Incref
	ldloc.1				; _LockKind$24248
	call		?_Lockit_dtor@_Lockit@std@@$$FSAXH@Z
$LN1@Incref:
	endfinally	
__tryend$?_Incref@facet@locale@std@@$$FQAMXXZ$3:
; Line 116
	ret		
 .end ?_Incref@facet@locale@std@@$$FQAMXXZ		; std::locale::facet::_Incref
;	.proc.end.void
	.bss
.local	$T62227,0
; Function compile flags: /Ogtpy
	.text
	.comdat	any, ?_Decref@facet@locale@std@@$$FQAMPAV123@XZ
.global	?_Decref@facet@locale@std@@$$FQAMPAV123@XZ	; std::locale::facet::_Decref
?_Decref@facet@locale@std@@$$FQAMPAV123@XZ:		; std::locale::facet::_Decref
;	.proc.def	D:I(I)

; Function Header:
; max stack depth = 4
; function size = 73 bytes
; local varsig tk = 0x1100004F 
; Exception Information:
; 2 handlers, each consisting of filtered handlers

;	.formal.i4 0,"this$" SIG: Optional C Binding Modifier(token:0x68D1791).Optional C Binding Modifier(token:0x68D1793).ptr.valueType (token:0x68D1796)
;	.local.i4 3,"$T62225" SIG: ptr.valueType (token:0x67D855A)
;	.local.i4 1,"_LockKind$24259" SIG: i4
;	.local.u1 2,"_MustReleaseLock$24258" SIG: bool

;	.proc.beg
; Line 120
	ldc.i.0		0		; u8 0x0
	stloc.2				; _MustReleaseLock$24258
	ldc.i.0		0		; i32 0x0
	stloc.1				; _LockKind$24259
	call		?PrepareConstrainedRegions@RuntimeHelpers@CompilerServices@Runtime@System@@$$FSMXXZ
$LN20@Decref:
	call		?PrepareConstrainedRegions@RuntimeHelpers@CompilerServices@Runtime@System@@$$FSMXXZ
$LN21@Decref:
$LN13@Decref:
	leave.s		__tryend$?_Decref@facet@locale@std@@$$FQAMPAV123@XZ$1
__catch$?_Decref@facet@locale@std@@$$FQAMPAV123@XZ$0:
	ldloc.1				; _LockKind$24259
	call		?_Lockit_ctor@_Lockit@std@@$$FSAXH@Z
	ldc.i.1		1		; u8 0x1
	stloc.2				; _MustReleaseLock$24258
	endfinally	
__tryend$?_Decref@facet@locale@std@@$$FQAMPAV123@XZ$1:
; Line 121
	ldarg.0				; this$
	ldc.i.4		4		; i32 0x4
	add		
	ldind.i4	
	stloc.0				
	ldc.i.0		0		; u32 0x0
	ldloc.0				
	bge.un.s	$LN2@Decref
	ldloc.0				
	ldc.i.-1	-1		; u32 0xffffffff
	bge.un.s	$LN2@Decref
; Line 122
	ldarg.0				; this$
	ldc.i.4		4		; i32 0x4
	add		
	ldloc.0				
	ldc.i.1		1		; u32 0x1
	sub		
	stind.i4	
$LN2@Decref:
; Line 123
	ldarg.0				; this$
	ldc.i.4		4		; i32 0x4
	add		
	ldind.i4	
	ldc.i.0		0		; u32 0x0
	beq.s		$LN18@Decref
	ldc.i.0		0		; i32 0x0
	br.s		$LN19@Decref
$LN18@Decref:
	ldarg.0				; this$
$LN19@Decref:
; Line 125
	stloc.3				; $T62225
	leave.s		$LN22@Decref
__catch$?_Decref@facet@locale@std@@$$FQAMPAV123@XZ$2:
; Line 124
	ldloc.2				; _MustReleaseLock$24258
	brfalse.s	$LN1@Decref
	ldloc.1				; _LockKind$24259
	call		?_Lockit_dtor@_Lockit@std@@$$FSAXH@Z
$LN1@Decref:
	endfinally	
__tryend$?_Decref@facet@locale@std@@$$FQAMPAV123@XZ$3:
; Line 125
	ldc.i.0		0		; i32 0x0
	ret		
$LN22@Decref:
	ldloc.3				; $T62225
	ret		
 .end ?_Decref@facet@locale@std@@$$FQAMPAV123@XZ	; std::locale::facet::_Decref
;	.proc.end.i4
; Function compile flags: /Ogtpy
	.text
	.comdat	any, ??1facet@locale@std@@$$FUAM@XZ
.global	??1facet@locale@std@@$$FUAM@XZ			; std::locale::facet::~facet
??1facet@locale@std@@$$FUAM@XZ:				; std::locale::facet::~facet
;	.proc.def	D:V(I)

; Function Header:
; max stack depth = 3
; function size = 10 bytes
; local varsig tk = 0x0 
; Exception Information:
; 0 handlers, each consisting of filtered handlers

;	.formal.i4 0,"this$" SIG: Optional C Binding Modifier(token:0x68D1791).Optional C Binding Modifier(token:0x68D1793).ptr.valueType (token:0x68D1796)

;	.proc.beg
; Line 164
	ldarg.0				; this$
	ldsflda		??_7facet@locale@std@@6B@
	ldc.i.4		4		; i32 0x4
	add		
	stind.i4	
; Line 165
	ret		
 .end ??1facet@locale@std@@$$FUAM@XZ			; std::locale::facet::~facet
;	.proc.end.void
; Function compile flags: /Ogtpy
	.text
	.comdat	any, ??0facet@locale@std@@$$FIAM@I@Z
.global	??0facet@locale@std@@$$FIAM@I@Z			; std::locale::facet::facet
??0facet@locale@std@@$$FIAM@I@Z:			; std::locale::facet::facet
;	.proc.def	D:I(II)

; Function Header:
; max stack depth = 3
; function size = 16 bytes
; local varsig tk = 0x0 
; Exception Information:
; 0 handlers, each consisting of filtered handlers

;	.formal.u4 1,"_Initrefs$" SIG: u4
;	.formal.i4 0,"this$" SIG: Optional C Binding Modifier(token:0x68D1791).Optional C Binding Modifier(token:0x68D1793).ptr.valueType (token:0x68D1796)

;	.proc.beg
; Line 170
	ldarg.0				; this$
	ldsflda		??_7facet@locale@std@@6B@
	ldc.i.4		4		; i32 0x4
	add		
	stind.i4	
	ldarg.0				; this$
	ldc.i.4		4		; i32 0x4
	add		
	ldarg.1				; _Initrefs$
	stind.i4	
; Line 171
	ldarg.0				; this$
	ret		
 .end ??0facet@locale@std@@$$FIAM@I@Z			; std::locale::facet::facet
;	.proc.end.i4
.global	
.global	
	.bss
.local	$T62237,0
.local	,4
.local	,4
; Function compile flags: /Ogtpy
	.text
	.comdat	any, ??0locale@std@@$$FQAM@ABV01@@Z
.global	??0locale@std@@$$FQAM@ABV01@@Z			; std::locale::locale
??0locale@std@@$$FQAM@ABV01@@Z:				; std::locale::locale
;	.proc.def	D:I(II)

; Function Header:
; max stack depth = 2
; function size = 14 bytes
; local varsig tk = 0x11000052 
; Exception Information:
; 0 handlers, each consisting of filtered handlers

;	.formal.i4 0,"this$" SIG: Optional C Binding Modifier(token:0x68D1185).Optional C Binding Modifier(token:0x68D1187).ptr.valueType (token:0x68D118A)
;	.formal.i4 1,"_Right$" SIG: Optional C Binding Modifier(token:0x68D10F9).ptr.Optional C Binding Modifier(token:0x68D10FD).valueType (token:0x68D10FF)

;	.proc.beg
; Line 309
	ldarg.1				; _Right$
	ldind.i4	
	stloc.0				
	ldarg.0				; this$
	ldloc.0				
	stind.i4	
; Line 310
	ldloc.0				
	call		?_Incref@facet@locale@std@@$$FQAMXXZ
; Line 311
	ldarg.0				; this$
	ret		
 .end ??0locale@std@@$$FQAM@ABV01@@Z			; std::locale::locale
;	.proc.end.i4
	.bss
.local	$T62243,0
.local	$SigTok$$$A8facet@locale@std@@AMPAXI@Z,4
; Function compile flags: /Ogtpy
	.text
	.comdat	any, ??1locale@std@@$$FQAM@XZ
.global	??1locale@std@@$$FQAM@XZ			; std::locale::~locale
??1locale@std@@$$FQAM@XZ:				; std::locale::~locale
;	.proc.def	D:V(I)

; Function Header:
; max stack depth = 3
; function size = 28 bytes
; local varsig tk = 0x11000053 
; Exception Information:
; 0 handlers, each consisting of filtered handlers

;	.formal.i4 0,"this$" SIG: Optional C Binding Modifier(token:0x68D1185).Optional C Binding Modifier(token:0x68D1187).ptr.valueType (token:0x68D118A)
;	.local.i4 0,"$T24375" SIG: ptr.valueType (token:0x68D120E)

;	.proc.beg
; Line 410
	ldarg.0				; this$
	ldind.i4	
	stloc.1				
	ldloc.1				
	brfalse.s	$LN4@locale
; Line 411
	ldloc.1				
	call		?_Decref@facet@locale@std@@$$FQAMPAV123@XZ
	stloc.0				; $T24375
	ldloc.0				; $T24375
	brfalse.s	$LN4@locale
	ldloc.0				; $T24375
	ldc.i.1		1		; u32 0x1
	ldloc.0				; $T24375
	ldind.i4	
	ldind.i4	
	calli		D:I(II)
	pop		
$LN4@locale:
; Line 412
	ret		
 .end ??1locale@std@@$$FQAM@XZ				; std::locale::~locale
;	.proc.end.void
	.bss
.local	$T62250,0
; Function compile flags: /Ogtpy
	.text
	.comdat	any, ??_Efacet@locale@std@@$$FUAMPAXI@Z
.global	??_Efacet@locale@std@@$$FUAMPAXI@Z		; std::locale::facet::`vector deleting destructor'
??_Efacet@locale@std@@$$FUAMPAXI@Z:			; std::locale::facet::`vector deleting destructor'
;	.proc.def	D:I(II)

; Function Header:
; max stack depth = 4
; function size = 59 bytes
; local varsig tk = 0x11000054 
; Exception Information:
; 0 handlers, each consisting of filtered handlers

;	.formal.i4 0,"this$" SIG: Optional C Binding Modifier(token:0x68D1791).Optional C Binding Modifier(token:0x68D1793).ptr.valueType (token:0x68D1796)
;	.formal.u4 1,"__flags$" SIG: u4
;	.local.i4 0,"$T62249" SIG: Optional C Binding Modifier(token:0x68D1791).Optional C Binding Modifier(token:0x68D1793).ptr.valueType (token:0x68D1796)

;	.proc.beg
	ldarg.1				; __flags$
	ldc.i.2		2		; u32 0x2
	and		
	brfalse.s	$LN3@vector
	ldarg.0				; this$
	ldc.i.4		4		; i32 0x4
	sub		
	stloc.0				; $T62249
	ldarg.0				; this$
	ldc.i.8		8		; u32 0x8
	ldloc.0				; $T62249
	ldind.i4	
	ldftn		??1facet@locale@std@@$$FUAM@XZ
	call		??_M@$$FYMXPAXIHP6MX0@Z@Z
	ldarg.1				; __flags$
	ldc.i.1		1		; u32 0x1
	and		
	brfalse.s	$LN2@vector
	ldloc.0				; $T62249
	call		??_V@$$FYMXPAX@Z
$LN2@vector:
	ldloc.0				; $T62249
	ret		
$LN3@vector:
	ldarg.0				; this$
	ldsflda		??_7facet@locale@std@@6B@
	ldc.i.4		4		; i32 0x4
	add		
	stind.i4	
	ldarg.1				; __flags$
	ldc.i.1		1		; u32 0x1
	and		
	brfalse.s	$LN1@vector
	ldarg.0				; this$
	call		??3@$$FYMXPAX@Z
$LN1@vector:
	ldarg.0				; this$
	ret		
 .end ??_Efacet@locale@std@@$$FUAMPAXI@Z		; std::locale::facet::`vector deleting destructor'
;	.proc.end.i4
.global	
	.bss
.local	,4
; Function compile flags: /Ogtpy
	.text
	.comdat	any, ??1codecvt_base@std@@$$FUAM@XZ
.global	??1codecvt_base@std@@$$FUAM@XZ			; std::codecvt_base::~codecvt_base
??1codecvt_base@std@@$$FUAM@XZ:				; std::codecvt_base::~codecvt_base
;	.proc.def	D:V(I)

; Function Header:
; max stack depth = 3
; function size = 19 bytes
; local varsig tk = 0x0 
; Exception Information:
; 0 handlers, each consisting of filtered handlers

;	.formal.i4 0,"this$" SIG: Optional C Binding Modifier(token:0x68CFF31).Optional C Binding Modifier(token:0x68CFF33).ptr.valueType (token:0x68CFF36)

;	.proc.beg
; Line 771
	ldarg.0				; this$
	ldsflda		??_7codecvt_base@std@@6B@
	ldc.i.4		4		; i32 0x4
	add		
	stind.i4	
; Line 772
	ldarg.0				; this$
	ldsflda		??_7facet@locale@std@@6B@
	ldc.i.4		4		; i32 0x4
	add		
	stind.i4	
	ret		
 .end ??1codecvt_base@std@@$$FUAM@XZ			; std::codecvt_base::~codecvt_base
;	.proc.end.void
.global	
	.bss
.local	,4
; Function compile flags: /Ogtpy
	.text
	.comdat	any, ?do_always_noconv@codecvt_base@std@@$$FMBM_NXZ
.global	?do_always_noconv@codecvt_base@std@@$$FMBM_NXZ	; std::codecvt_base::do_always_noconv
?do_always_noconv@codecvt_base@std@@$$FMBM_NXZ:		; std::codecvt_base::do_always_noconv
;	.proc.def	D:I(I)

; Function Header:
; max stack depth = 1
; function size = 2 bytes
; local varsig tk = 0x0 
; Exception Information:
; 0 handlers, each consisting of filtered handlers


;	.proc.beg
; Line 777
	ldc.i.1		1		; u8 0x1
	ret		
 .end ?do_always_noconv@codecvt_base@std@@$$FMBM_NXZ	; std::codecvt_base::do_always_noconv
;	.proc.end.u1
; Function compile flags: /Ogtpy
	.text
	.comdat	any, ?do_max_length@codecvt_base@std@@$$FMBMHXZ
.global	?do_max_length@codecvt_base@std@@$$FMBMHXZ	; std::codecvt_base::do_max_length
?do_max_length@codecvt_base@std@@$$FMBMHXZ:		; std::codecvt_base::do_max_length
;	.proc.def	D:I(I)

; Function Header:
; max stack depth = 1
; function size = 2 bytes
; local varsig tk = 0x0 
; Exception Information:
; 0 handlers, each consisting of filtered handlers


;	.proc.beg
; Line 782
	ldc.i.1		1		; i32 0x1
	ret		
 .end ?do_max_length@codecvt_base@std@@$$FMBMHXZ	; std::codecvt_base::do_max_length
;	.proc.end.i4
; Function compile flags: /Ogtpy
	.text
	.comdat	any, ?do_encoding@codecvt_base@std@@$$FMBMHXZ
.global	?do_encoding@codecvt_base@std@@$$FMBMHXZ	; std::codecvt_base::do_encoding
?do_encoding@codecvt_base@std@@$$FMBMHXZ:		; std::codecvt_base::do_encoding
;	.proc.def	D:I(I)

; Function Header:
; max stack depth = 1
; function size = 2 bytes
; local varsig tk = 0x0 
; Exception Information:
; 0 handlers, each consisting of filtered handlers


;	.proc.beg
; Line 787
	ldc.i.1		1		; i32 0x1
	ret		
 .end ?do_encoding@codecvt_base@std@@$$FMBMHXZ		; std::codecvt_base::do_encoding
;	.proc.end.i4
	.bss
.local	$T62281,0
; Function compile flags: /Ogtpy
	.text
	.comdat	any, ??_Ecodecvt_base@std@@$$FUAMPAXI@Z
.global	??_Ecodecvt_base@std@@$$FUAMPAXI@Z		; std::codecvt_base::`vector deleting destructor'
??_Ecodecvt_base@std@@$$FUAMPAXI@Z:			; std::codecvt_base::`vector deleting destructor'
;	.proc.def	D:I(II)

; Function Header:
; max stack depth = 4
; function size = 68 bytes
; local varsig tk = 0x11000057 
; Exception Information:
; 0 handlers, each consisting of filtered handlers

;	.formal.i4 0,"this$" SIG: Optional C Binding Modifier(token:0x68CFF31).Optional C Binding Modifier(token:0x68CFF33).ptr.valueType (token:0x68CFF36)
;	.formal.u4 1,"__flags$" SIG: u4
;	.local.i4 0,"$T62280" SIG: Optional C Binding Modifier(token:0x68CFF31).Optional C Binding Modifier(token:0x68CFF33).ptr.valueType (token:0x68CFF36)

;	.proc.beg
	ldarg.1				; __flags$
	ldc.i.2		2		; u32 0x2
	and		
	brfalse.s	$LN3@vector@2
	ldarg.0				; this$
	ldc.i.4		4		; i32 0x4
	sub		
	stloc.0				; $T62280
	ldarg.0				; this$
	ldc.i.8		8		; u32 0x8
	ldloc.0				; $T62280
	ldind.i4	
	ldftn		??1codecvt_base@std@@$$FUAM@XZ
	call		??_M@$$FYMXPAXIHP6MX0@Z@Z
	ldarg.1				; __flags$
	ldc.i.1		1		; u32 0x1
	and		
	brfalse.s	$LN2@vector@2
	ldloc.0				; $T62280
	call		??_V@$$FYMXPAX@Z
$LN2@vector@2:
	ldloc.0				; $T62280
	ret		
$LN3@vector@2:
	ldarg.0				; this$
	ldsflda		??_7codecvt_base@std@@6B@
	ldc.i.4		4		; i32 0x4
	add		
	stind.i4	
	ldarg.0				; this$
	ldsflda		??_7facet@locale@std@@6B@
	ldc.i.4		4		; i32 0x4
	add		
	stind.i4	
	ldarg.1				; __flags$
	ldc.i.1		1		; u32 0x1
	and		
	brfalse.s	$LN1@vector@2
	ldarg.0				; this$
	call		??3@$$FYMXPAX@Z
$LN1@vector@2:
	ldarg.0				; this$
	ret		
 .end ??_Ecodecvt_base@std@@$$FUAMPAXI@Z		; std::codecvt_base::`vector deleting destructor'
;	.proc.end.i4
.global	
	.bss
.local	,4
; Function compile flags: /Ogtpy
	.text
	.comdat	any, ??1?$codecvt@_WDH@std@@$$FMAM@XZ
.global	??1?$codecvt@_WDH@std@@$$FMAM@XZ		; std::codecvt<wchar_t,char,int>::~codecvt<wchar_t,char,int>
??1?$codecvt@_WDH@std@@$$FMAM@XZ:			; std::codecvt<wchar_t,char,int>::~codecvt<wchar_t,char,int>
;	.proc.def	D:V(I)

; Function Header:
; max stack depth = 3
; function size = 28 bytes
; local varsig tk = 0x0 
; Exception Information:
; 0 handlers, each consisting of filtered handlers

;	.formal.i4 0,"this$" SIG: Optional C Binding Modifier(token:0x68CF539).Optional C Binding Modifier(token:0x68CF53B).ptr.valueType (token:0x68CF53E)

;	.proc.beg
; Line 1570
	ldarg.0				; this$
	ldsflda		??_7?$codecvt@_WDH@std@@6B@
	ldc.i.4		4		; i32 0x4
	add		
	stind.i4	
; Line 1571
	ldarg.0				; this$
	ldsflda		??_7codecvt_base@std@@6B@
	ldc.i.4		4		; i32 0x4
	add		
	stind.i4	
	ldarg.0				; this$
	ldsflda		??_7facet@locale@std@@6B@
	ldc.i.4		4		; i32 0x4
	add		
	stind.i4	
	ret		
 .end ??1?$codecvt@_WDH@std@@$$FMAM@XZ			; std::codecvt<wchar_t,char,int>::~codecvt<wchar_t,char,int>
;	.proc.end.void
.global	
.global	
.global	
.global	
	.bss
.local	$T62314,0
.local	,4
.local	,4
.local	,4
.local	,4
; Function compile flags: /Ogtpy
	.text
	.comdat	any, ?do_in@?$codecvt@_WDH@std@@$$FMBMHAAHPBD1AAPBDPA_W3AAPA_W@Z
.global	?do_in@?$codecvt@_WDH@std@@$$FMBMHAAHPBD1AAPBDPA_W3AAPA_W@Z ; std::codecvt<wchar_t,char,int>::do_in
?do_in@?$codecvt@_WDH@std@@$$FMBMHAAHPBD1AAPBDPA_W3AAPA_W@Z: ; std::codecvt<wchar_t,char,int>::do_in
;	.proc.def	D:I(IIIIIIII)

; Function Header:
; max stack depth = 6
; function size = 144 bytes
; local varsig tk = 0x1100005D 
; Exception Information:
; 0 handlers, each consisting of filtered handlers

;	.formal.i4 0,"this$" SIG: Optional C Binding Modifier(token:0x68CF899).Optional C Binding Modifier(token:0x68CF89B).ptr.Optional C Binding Modifier(token:0x68CF89E).valueType (token:0x68CF8A0)
;	.formal.i4 1,"_State$" SIG: Optional C Binding Modifier(token:0x68CF92D).ptr.i4
;	.formal.i4 6,"_Last2$" SIG: ptr.char
;	.formal.i4 3,"_Last1$" SIG: ptr.Optional C Binding Modifier(token:0x68E807A).Optional C Binding Modifier(token:0x68E807C).i1
;	.formal.i4 5,"_First2$" SIG: ptr.char
;	.formal.i4 7,"_Mid2$" SIG: Optional C Binding Modifier(token:0x68CFA2D).ptr.ptr.char
;	.formal.i4 2,"_First1$" SIG: ptr.Optional C Binding Modifier(token:0x68E807A).Optional C Binding Modifier(token:0x68E807C).i1
;	.formal.i4 4,"_Mid1$" SIG: Optional C Binding Modifier(token:0x68CF9A9).ptr.ptr.Optional C Binding Modifier(token:0x68CF9AE).Optional C Binding Modifier(token:0x68CF9B0).i1
;	.local.i4 0,"_Bytes$" SIG: i4
;	.local.i4 4,"_Ans$" SIG: i4

;	.proc.beg
; Line 1584
	ldarg.s		4		; _Mid1$
	ldarg.2				; _First1$
	stind.i4	
	ldarg.s		7		; _Mid2$
	ldarg.s		5		; _First2$
	stind.i4	
; Line 1585
	ldarg.s		4		; _Mid1$
	ldind.i4	
	stloc.1				
	ldloc.1				
	ldarg.3				; _Last1$
	beq.s		$LN21@do_in
	ldc.i.1		1		; i32 0x1
	br.s		$LN22@do_in
$LN21@do_in:
	ldc.i.0		0		; i32 0x0
$LN22@do_in:
	stloc.s		4		; _Ans$
; Line 1588
	ldloc.1				
	ldarg.3				; _Last1$
	beq.s		$LN9@do_in
$LL10@do_in:
	ldarg.s		7		; _Mid2$
	ldind.i4	
	stloc.s		5		
	ldloc.s		5		
	ldarg.s		6		; _Last2$
	beq.s		$LN9@do_in
; Line 1590
	ldarg.s		4		; _Mid1$
	ldind.i4	
	stloc.1				
	ldloc.s		5		
	ldloc.1				
	ldarg.3				; _Last1$
	ldloc.1				
	sub		
	ldarg.1				; _State$
	ldarg.0				; this$
	ldc.i.8		8		; i32 0x8
	add		
	call		?_Mbrtowc@@$$J0YMHPA_WPBDIPAHPBU_Cvtvec@@@Z
	stloc.0				; _Bytes$
	ldloc.0				; _Bytes$
	ldc.i4.s	-2		; i32 0xfffffffe
	beq.s		$LN6@do_in
	ldloc.0				; _Bytes$
	ldc.i.-1	-1		; i32 0xffffffff
	beq.s		$LN5@do_in
	ldloc.0				; _Bytes$
	brtrue.s	$LN3@do_in
; Line 1600
	ldarg.s		7		; _Mid2$
	ldind.i4	
	ldind.u2	
	brtrue.s	$LN1@do_in
; Line 1601
	ldarg.s		4		; _Mid1$
	ldind.i4	
	stloc.3				
	ldloc.3				
	stloc.2				
	ldloc.3				
	ldind.i1	
	brfalse.s	$LN15@do_in
$LL16@do_in:
	ldloc.2				
	ldc.i.1		1		; i32 0x1
	add		
	stloc.2				
	ldloc.2				
	ldind.i1	
	brtrue.s	$LL16@do_in
$LN15@do_in:
	ldloc.2				
	ldloc.3				
	sub		
	ldc.i.1		1		; i32 0x1
	add		
	stloc.0				; _Bytes$
$LN3@do_in:
; Line 1605
	ldloc.0				; _Bytes$
	ldc.i4.s	-3		; i32 0xfffffffd
	bne.un.s	$LN1@do_in
; Line 1606
	ldc.i.0		0		; i32 0x0
	stloc.0				; _Bytes$
$LN1@do_in:
; Line 1607
	ldarg.s		4		; _Mid1$
	dup		
	ldind.i4	
	ldloc.0				; _Bytes$
	add		
	stind.i4	
; Line 1608
	ldarg.s		7		; _Mid2$
	dup		
	ldind.i4	
	ldc.i.2		2		; i32 0x2
	add		
	stind.i4	
; Line 1609
	ldc.i.0		0		; i32 0x0
	stloc.s		4		; _Ans$
; Line 1588
	ldarg.s		4		; _Mid1$
	ldind.i4	
	ldarg.3				; _Last1$
	bne.un.s	$LL10@do_in
	br.s		$LN9@do_in
$LN5@do_in:
; Line 1597
	ldc.i.2		2		; i32 0x2
	ret		
$LN6@do_in:
; Line 1593
	ldarg.s		4		; _Mid1$
	ldarg.3				; _Last1$
	stind.i4	
; Line 1594
	ldloc.s		4		; _Ans$
	ret		
$LN9@do_in:
; Line 1611
	ldloc.s		4		; _Ans$
	ret		
 .end ?do_in@?$codecvt@_WDH@std@@$$FMBMHAAHPBD1AAPBDPA_W3AAPA_W@Z ; std::codecvt<wchar_t,char,int>::do_in
;	.proc.end.i4
.global	
.global	
.global	
	.bss
.local	$T62330,0
.local	,4
.local	,4
.local	,4
; Function compile flags: /Ogtpy
	.text
	.comdat	any, ?do_out@?$codecvt@_WDH@std@@$$FMBMHAAHPB_W1AAPB_WPAD3AAPAD@Z
.global	?do_out@?$codecvt@_WDH@std@@$$FMBMHAAHPB_W1AAPB_WPAD3AAPAD@Z ; std::codecvt<wchar_t,char,int>::do_out
?do_out@?$codecvt@_WDH@std@@$$FMBMHAAHPB_W1AAPB_WPAD3AAPAD@Z: ; std::codecvt<wchar_t,char,int>::do_out
;	.proc.def	D:I(IIIIIIII)

; Function Header:
; max stack depth = 5
; function size = 168 bytes
; local varsig tk = 0x11000061 
; Exception Information:
; 0 handlers, each consisting of filtered handlers

;	.formal.i4 0,"this$" SIG: Optional C Binding Modifier(token:0x68CF899).Optional C Binding Modifier(token:0x68CF89B).ptr.Optional C Binding Modifier(token:0x68CF89E).valueType (token:0x68CF8A0)
;	.formal.i4 1,"_State$" SIG: Optional C Binding Modifier(token:0x68CF92D).ptr.i4
;	.formal.i4 6,"_Last2$" SIG: ptr.Optional C Binding Modifier(token:0x68E7F3A).i1
;	.formal.i4 3,"_Last1$" SIG: ptr.Optional C Binding Modifier(token:0x68E95FE).char
;	.formal.i4 5,"_First2$" SIG: ptr.Optional C Binding Modifier(token:0x68E7F3A).i1
;	.formal.i4 7,"_Mid2$" SIG: Optional C Binding Modifier(token:0x68CF775).ptr.ptr.Optional C Binding Modifier(token:0x68CF77A).i1
;	.formal.i4 2,"_First1$" SIG: ptr.Optional C Binding Modifier(token:0x68E95FE).char
;	.formal.i4 4,"_Mid1$" SIG: Optional C Binding Modifier(token:0x68CF6F5).ptr.ptr.Optional C Binding Modifier(token:0x68CF6FA).char
;	.local.mb5   5,"_Buf$24855" SIG: valueType (token:0x68CF03D)
;	.local.i4 4,"_Stsave$24856" SIG: i4
;	.local.i4 0,"_Bytes$" SIG: i4
;	.local.i4 2,"_Ans$" SIG: i4

;	.proc.beg
; Line 1620
	ldarg.s		4		; _Mid1$
	ldarg.2				; _First1$
	stind.i4	
	ldarg.s		7		; _Mid2$
	ldarg.s		5		; _First2$
	stind.i4	
; Line 1621
	ldarg.s		4		; _Mid1$
	ldind.i4	
	stloc.3				
	ldloc.3				
	ldarg.3				; _Last1$
	beq.s		$LN19@do_out
	ldc.i.1		1		; i32 0x1
	br.s		$LN20@do_out
$LN19@do_out:
	ldc.i.0		0		; i32 0x0
$LN20@do_out:
	stloc.2				; _Ans$
; Line 1624
	ldloc.3				
	ldarg.3				; _Last1$
	beq		$LN9@do_out
$LL10@do_out:
	ldarg.s		7		; _Mid2$
	ldind.i4	
	ldarg.s		6		; _Last2$
	beq		$LN9@do_out
; Line 1625
	ldarg.s		7		; _Mid2$
	ldind.i4	
	stloc.1				
	call		?___mb_cur_max_func@@$$J0YAHXZ
	ldarg.s		6		; _Last2$
	ldloc.1				
	sub		
	bgt.s		$LN8@do_out
; Line 1627
	ldloc.1				
	ldarg.s		4		; _Mid1$
	ldind.i4	
	ldind.u2	
	ldarg.1				; _State$
	ldarg.0				; this$
	ldc.i.8		8		; i32 0x8
	add		
	call		?_Wcrtomb@@$$FYMHPAD_WPAHPBU_Cvtvec@@@Z
	stloc.0				; _Bytes$
	ldloc.0				; _Bytes$
	ldc.i.0		0		; i32 0x0
	blt.s		$LN16@do_out
; Line 1630
	ldarg.s		4		; _Mid1$
	dup		
	ldind.i4	
	ldc.i.2		2		; i32 0x2
	add		
	stind.i4	
	ldarg.s		7		; _Mid2$
	dup		
	ldind.i4	
	ldloc.0				; _Bytes$
	add		
	stind.i4	
	ldc.i.0		0		; i32 0x0
	stloc.2				; _Ans$
; Line 1631
	br.s		$LN1@do_out
$LN8@do_out:
; Line 1634
	ldarg.1				; _State$
	ldind.i4	
	stloc.s		4		; _Stsave$24856
; Line 1637
	ldloca.s	5		; _Buf$24855
	ldarg.s		4		; _Mid1$
	ldind.i4	
	ldind.u2	
	ldarg.1				; _State$
	ldarg.0				; this$
	ldc.i.8		8		; i32 0x8
	add		
	call		?_Wcrtomb@@$$FYMHPAD_WPAHPBU_Cvtvec@@@Z
	stloc.0				; _Bytes$
	ldloc.0				; _Bytes$
	ldc.i.0		0		; i32 0x0
	blt.s		$LN17@do_out
; Line 1639
	ldarg.s		7		; _Mid2$
	ldind.i4	
	stloc.1				
	ldarg.s		6		; _Last2$
	ldloc.1				
	sub		
	ldloc.0				; _Bytes$
	blt.s		$LN18@do_out
; Line 1646
	ldloc.1				
	ldloca.s	5		; _Buf$24855
	ldloc.0				; _Bytes$
	cpblk		
; Line 1647
	ldarg.s		4		; _Mid1$
	dup		
	ldind.i4	
	ldc.i.2		2		; i32 0x2
	add		
	stind.i4	
	ldarg.s		7		; _Mid2$
	dup		
	ldind.i4	
	ldloc.0				; _Bytes$
	add		
	stind.i4	
	ldc.i.0		0		; i32 0x0
	stloc.2				; _Ans$
$LN1@do_out:
; Line 1624
	ldarg.s		4		; _Mid1$
	ldind.i4	
	ldarg.3				; _Last1$
	bne.un.s	$LL10@do_out
; Line 1639
	br.s		$LN9@do_out
$LN16@do_out:
; Line 1628
	ldc.i.2		2		; i32 0x2
	ret		
$LN17@do_out:
; Line 1638
	ldc.i.2		2		; i32 0x2
	ret		
$LN18@do_out:
; Line 1641
	ldarg.1				; _State$
	ldloc.s		4		; _Stsave$24856
	stind.i4	
; Line 1642
	ldloc.2				; _Ans$
	ret		
$LN9@do_out:
; Line 1650
	ldloc.2				; _Ans$
	ret		
 .end ?do_out@?$codecvt@_WDH@std@@$$FMBMHAAHPB_W1AAPB_WPAD3AAPAD@Z ; std::codecvt<wchar_t,char,int>::do_out
;	.proc.end.i4
	.bss
.local	$T62334,0
; Function compile flags: /Ogtpy
	.text
	.comdat	any, ?do_unshift@?$codecvt@_WDH@std@@$$FMBMHAAHPAD1AAPAD@Z
.global	?do_unshift@?$codecvt@_WDH@std@@$$FMBMHAAHPAD1AAPAD@Z ; std::codecvt<wchar_t,char,int>::do_unshift
?do_unshift@?$codecvt@_WDH@std@@$$FMBMHAAHPAD1AAPAD@Z:	; std::codecvt<wchar_t,char,int>::do_unshift
;	.proc.def	D:I(IIIII)

; Function Header:
; max stack depth = 5
; function size = 70 bytes
; local varsig tk = 0x11000062 
; Exception Information:
; 0 handlers, each consisting of filtered handlers

;	.formal.i4 3,"_Last2$" SIG: ptr.Optional C Binding Modifier(token:0x68E7F3A).i1
;	.formal.i4 0,"this$" SIG: Optional C Binding Modifier(token:0x68CF899).Optional C Binding Modifier(token:0x68CF89B).ptr.Optional C Binding Modifier(token:0x68CF89E).valueType (token:0x68CF8A0)
;	.formal.i4 1,"_State$" SIG: Optional C Binding Modifier(token:0x68CF92D).ptr.i4
;	.formal.i4 2,"_First2$" SIG: ptr.Optional C Binding Modifier(token:0x68E7F3A).i1
;	.formal.i4 4,"_Mid2$" SIG: Optional C Binding Modifier(token:0x68CF775).ptr.ptr.Optional C Binding Modifier(token:0x68CF77A).i1
;	.local.i4 0,"_Bytes$" SIG: i4
;	.local.mb5   4,"_Buf$" SIG: valueType (token:0x68CF03D)
;	.local.i4 3,"_Stsave$" SIG: i4
;	.local.i4 1,"_Ans$" SIG: i4

;	.proc.beg
; Line 1657
	ldarg.s		4		; _Mid2$
	ldarg.2				; _First2$
	stind.i4	
; Line 1658
	ldc.i.0		0		; i32 0x0
	stloc.1				; _Ans$
; Line 1661
	ldarg.1				; _State$
	ldind.i4	
	stloc.3				; _Stsave$
; Line 1663
	ldloca.s	4		; _Buf$
	ldc.i.0		0		; u16 0x0
	ldarg.1				; _State$
	ldarg.0				; this$
	ldc.i.8		8		; i32 0x8
	add		
	call		?_Wcrtomb@@$$FYMHPAD_WPAHPBU_Cvtvec@@@Z
	stloc.0				; _Bytes$
	ldloc.0				; _Bytes$
	ldc.i.0		0		; i32 0x0
	bgt.s		$LN5@do_unshift
; Line 1664
	ldc.i.2		2		; i32 0x2
	stloc.1				; _Ans$
	br.s		$LN1@do_unshift
$LN5@do_unshift:
; Line 1665
	ldloc.0				; _Bytes$
	ldc.i.1		1		; i32 0x1
	sub		
	stloc.0				; _Bytes$
	ldarg.s		4		; _Mid2$
	ldind.i4	
	stloc.2				
	ldarg.3				; _Last2$
	ldloc.2				
	sub		
	ldloc.0				; _Bytes$
	bge.s		$LN3@do_unshift
; Line 1667
	ldarg.1				; _State$
	ldloc.3				; _Stsave$
	stind.i4	
; Line 1668
	ldc.i.1		1		; i32 0x1
	stloc.1				; _Ans$
	br.s		$LN1@do_unshift
$LN3@do_unshift:
; Line 1670
	ldc.i.0		0		; i32 0x0
	ldloc.0				; _Bytes$
	bge.s		$LN1@do_unshift
; Line 1672
	ldloc.2				
	ldloca.s	4		; _Buf$
	ldloc.0				; _Bytes$
	cpblk		
; Line 1673
	ldarg.s		4		; _Mid2$
	dup		
	ldind.i4	
	ldloc.0				; _Bytes$
	add		
	stind.i4	
$LN1@do_unshift:
; Line 1675
	ldloc.1				; _Ans$
	ret		
 .end ?do_unshift@?$codecvt@_WDH@std@@$$FMBMHAAHPAD1AAPAD@Z ; std::codecvt<wchar_t,char,int>::do_unshift
;	.proc.end.i4
.global	
	.bss
.local	$T62346,0
.local	,4
; Function compile flags: /Ogtpy
	.text
	.comdat	any, ?do_length@?$codecvt@_WDH@std@@$$FMBMHABHPBD1I@Z
.global	?do_length@?$codecvt@_WDH@std@@$$FMBMHABHPBD1I@Z ; std::codecvt<wchar_t,char,int>::do_length
?do_length@?$codecvt@_WDH@std@@$$FMBMHABHPBD1I@Z:	; std::codecvt<wchar_t,char,int>::do_length
;	.proc.def	D:I(IIIII)

; Function Header:
; max stack depth = 6
; function size = 98 bytes
; local varsig tk = 0x11000064 
; Exception Information:
; 0 handlers, each consisting of filtered handlers

;	.formal.i4 0,"this$" SIG: Optional C Binding Modifier(token:0x68CF899).Optional C Binding Modifier(token:0x68CF89B).ptr.Optional C Binding Modifier(token:0x68CF89E).valueType (token:0x68CF8A0)
;	.formal.i4 3,"_Last1$" SIG: ptr.Optional C Binding Modifier(token:0x68E807A).Optional C Binding Modifier(token:0x68E807C).i1
;	.formal.u4 4,"_Count$" SIG: u4
;	.formal.i4 2,"_First1$" SIG: ptr.Optional C Binding Modifier(token:0x68E807A).Optional C Binding Modifier(token:0x68E807C).i1
;	.formal.i4 1,"_State$" SIG: Optional C Binding Modifier(token:0x68E4001).ptr.Optional C Binding Modifier(token:0x68E4005).i4
;	.local.i4 3,"$T62343" SIG: ptr.Optional C Binding Modifier(token:0x68E807A).Optional C Binding Modifier(token:0x68E807C).i1
;	.local.i4 1,"_Bytes$24882" SIG: i4
;	.local.u2 4,"_Ch$24883" SIG: char
;	.local.i4 0,"_Mid1$" SIG: ptr.Optional C Binding Modifier(token:0x68E807A).Optional C Binding Modifier(token:0x68E807C).i1
;	.local.i4 2,"_Wchars$" SIG: i4
;	.local.i4 5,"_Mystate$" SIG: i4

;	.proc.beg
; Line 1689
	ldarg.1				; _State$
	ldind.i4	
	stloc.s		5		; _Mystate$
; Line 1691
	ldc.i.0		0		; i32 0x0
	stloc.2				; _Wchars$
	ldarg.2				; _First1$
	stloc.0				; _Mid1$
; Line 1692
	ldc.i.0		0		; u32 0x0
	ldarg.s		4		; _Count$
	bge.un.s	$LN9@do_length
$LL10@do_length:
	ldloc.0				; _Mid1$
	ldarg.3				; _Last1$
	beq.s		$LN9@do_length
; Line 1698
	ldloca.s	4		; _Ch$24883
	ldloc.0				; _Mid1$
	ldarg.3				; _Last1$
	ldloc.0				; _Mid1$
	sub		
	ldloca.s	5		; _Mystate$
	ldarg.0				; this$
	ldc.i.8		8		; i32 0x8
	add		
	call		?_Mbrtowc@@$$J0YMHPA_WPBDIPAHPBU_Cvtvec@@@Z
	stloc.1				; _Bytes$24882
	ldloc.1				; _Bytes$24882
	ldc.i4.s	-2		; i32 0xfffffffe
	beq.s		$LN6@do_length
	ldloc.1				; _Bytes$24882
	ldc.i.-1	-1		; i32 0xffffffff
	beq.s		$LN5@do_length
	ldloc.1				; _Bytes$24882
	brtrue.s	$LN3@do_length
; Line 1707
	ldloc.s		4		; _Ch$24883
	brtrue.s	$LN1@do_length
; Line 1708
	ldloc.0				; _Mid1$
	stloc.3				; $T62343
	ldloc.0				; _Mid1$
	ldind.i1	
	brfalse.s	$LN13@do_length
$LL14@do_length:
	ldloc.3				; $T62343
	ldc.i.1		1		; i32 0x1
	add		
	stloc.3				; $T62343
	ldloc.3				; $T62343
	ldind.i1	
	brtrue.s	$LL14@do_length
$LN13@do_length:
	ldloc.3				; $T62343
	ldloc.0				; _Mid1$
	sub		
	ldc.i.1		1		; i32 0x1
	add		
	stloc.1				; _Bytes$24882
$LN3@do_length:
; Line 1712
	ldloc.1				; _Bytes$24882
	ldc.i4.s	-3		; i32 0xfffffffd
	bne.un.s	$LN1@do_length
; Line 1713
	ldc.i.0		0		; i32 0x0
	stloc.1				; _Bytes$24882
$LN1@do_length:
; Line 1714
	ldloc.1				; _Bytes$24882
	ldloc.0				; _Mid1$
	add		
	stloc.0				; _Mid1$
; Line 1715
	ldloc.2				; _Wchars$
	ldc.i.1		1		; i32 0x1
	add		
	stloc.2				; _Wchars$
; Line 1692
	ldloc.2				; _Wchars$
	ldarg.s		4		; _Count$
	blt.un.s	$LL10@do_length
	br.s		$LN9@do_length
$LN5@do_length:
; Line 1704
	ldloc.2				; _Wchars$
	ret		
$LN6@do_length:
; Line 1701
	ldloc.2				; _Wchars$
	ret		
$LN9@do_length:
; Line 1718
	ldloc.2				; _Wchars$
	ret		
 .end ?do_length@?$codecvt@_WDH@std@@$$FMBMHABHPBD1I@Z	; std::codecvt<wchar_t,char,int>::do_length
;	.proc.end.i4
; Function compile flags: /Ogtpy
	.text
	.comdat	any, ?do_always_noconv@?$codecvt@_WDH@std@@$$FMBM_NXZ
.global	?do_always_noconv@?$codecvt@_WDH@std@@$$FMBM_NXZ ; std::codecvt<wchar_t,char,int>::do_always_noconv
?do_always_noconv@?$codecvt@_WDH@std@@$$FMBM_NXZ:	; std::codecvt<wchar_t,char,int>::do_always_noconv
;	.proc.def	D:I(I)

; Function Header:
; max stack depth = 1
; function size = 2 bytes
; local varsig tk = 0x0 
; Exception Information:
; 0 handlers, each consisting of filtered handlers


;	.proc.beg
; Line 1724
	ldc.i.0		0		; u8 0x0
	ret		
 .end ?do_always_noconv@?$codecvt@_WDH@std@@$$FMBM_NXZ	; std::codecvt<wchar_t,char,int>::do_always_noconv
;	.proc.end.u1
; Function compile flags: /Ogtpy
	.text
	.comdat	any, ?do_max_length@?$codecvt@_WDH@std@@$$FMBMHXZ
.global	?do_max_length@?$codecvt@_WDH@std@@$$FMBMHXZ	; std::codecvt<wchar_t,char,int>::do_max_length
?do_max_length@?$codecvt@_WDH@std@@$$FMBMHXZ:		; std::codecvt<wchar_t,char,int>::do_max_length
;	.proc.def	D:I(I)

; Function Header:
; max stack depth = 1
; function size = 2 bytes
; local varsig tk = 0x0 
; Exception Information:
; 0 handlers, each consisting of filtered handlers


;	.proc.beg
; Line 1729
	ldc.i.5		5		; i32 0x5
	ret		
 .end ?do_max_length@?$codecvt@_WDH@std@@$$FMBMHXZ	; std::codecvt<wchar_t,char,int>::do_max_length
;	.proc.end.i4
	.bss
.local	$T62373,0
; Function compile flags: /Ogtpy
	.text
	.comdat	any, ??_E?$codecvt@_WDH@std@@$$FMAMPAXI@Z
.global	??_E?$codecvt@_WDH@std@@$$FMAMPAXI@Z		; std::codecvt<wchar_t,char,int>::`vector deleting destructor'
??_E?$codecvt@_WDH@std@@$$FMAMPAXI@Z:			; std::codecvt<wchar_t,char,int>::`vector deleting destructor'
;	.proc.def	D:I(II)

; Function Header:
; max stack depth = 4
; function size = 78 bytes
; local varsig tk = 0x11000065 
; Exception Information:
; 0 handlers, each consisting of filtered handlers

;	.formal.i4 0,"this$" SIG: Optional C Binding Modifier(token:0x68CF539).Optional C Binding Modifier(token:0x68CF53B).ptr.valueType (token:0x68CF53E)
;	.formal.u4 1,"__flags$" SIG: u4
;	.local.i4 0,"$T62372" SIG: Optional C Binding Modifier(token:0x68CF539).Optional C Binding Modifier(token:0x68CF53B).ptr.valueType (token:0x68CF53E)

;	.proc.beg
	ldarg.1				; __flags$
	ldc.i.2		2		; u32 0x2
	and		
	brfalse.s	$LN3@vector@3
	ldarg.0				; this$
	ldc.i.4		4		; i32 0x4
	sub		
	stloc.0				; $T62372
	ldarg.0				; this$
	ldc.i4.s	16		; u32 0x10
	ldloc.0				; $T62372
	ldind.i4	
	ldftn		??1?$codecvt@_WDH@std@@$$FMAM@XZ
	call		??_M@$$FYMXPAXIHP6MX0@Z@Z
	ldarg.1				; __flags$
	ldc.i.1		1		; u32 0x1
	and		
	brfalse.s	$LN2@vector@3
	ldloc.0				; $T62372
	call		??_V@$$FYMXPAX@Z
$LN2@vector@3:
	ldloc.0				; $T62372
	ret		
$LN3@vector@3:
	ldarg.0				; this$
	ldsflda		??_7?$codecvt@_WDH@std@@6B@
	ldc.i.4		4		; i32 0x4
	add		
	stind.i4	
	ldarg.0				; this$
	ldsflda		??_7codecvt_base@std@@6B@
	ldc.i.4		4		; i32 0x4
	add		
	stind.i4	
	ldarg.0				; this$
	ldsflda		??_7facet@locale@std@@6B@
	ldc.i.4		4		; i32 0x4
	add		
	stind.i4	
	ldarg.1				; __flags$
	ldc.i.1		1		; u32 0x1
	and		
	brfalse.s	$LN1@vector@3
	ldarg.0				; this$
	call		??3@$$FYMXPAX@Z
$LN1@vector@3:
	ldarg.0				; this$
	ret		
 .end ??_E?$codecvt@_WDH@std@@$$FMAMPAXI@Z		; std::codecvt<wchar_t,char,int>::`vector deleting destructor'
;	.proc.end.i4
.global	
	.bss
.local	,4
; Function compile flags: /Ogtpy
	.text
	.comdat	any, ??1?$codecvt@GDH@std@@$$FMAM@XZ
.global	??1?$codecvt@GDH@std@@$$FMAM@XZ			; std::codecvt<unsigned short,char,int>::~codecvt<unsigned short,char,int>
??1?$codecvt@GDH@std@@$$FMAM@XZ:			; std::codecvt<unsigned short,char,int>::~codecvt<unsigned short,char,int>
;	.proc.def	D:V(I)

; Function Header:
; max stack depth = 3
; function size = 28 bytes
; local varsig tk = 0x0 
; Exception Information:
; 0 handlers, each consisting of filtered handlers

;	.formal.i4 0,"this$" SIG: Optional C Binding Modifier(token:0x68CEB05).Optional C Binding Modifier(token:0x68CEB07).ptr.valueType (token:0x68CEB0A)

;	.proc.beg
; Line 1806
	ldarg.0				; this$
	ldsflda		??_7?$codecvt@GDH@std@@6B@
	ldc.i.4		4		; i32 0x4
	add		
	stind.i4	
; Line 1807
	ldarg.0				; this$
	ldsflda		??_7codecvt_base@std@@6B@
	ldc.i.4		4		; i32 0x4
	add		
	stind.i4	
	ldarg.0				; this$
	ldsflda		??_7facet@locale@std@@6B@
	ldc.i.4		4		; i32 0x4
	add		
	stind.i4	
	ret		
 .end ??1?$codecvt@GDH@std@@$$FMAM@XZ			; std::codecvt<unsigned short,char,int>::~codecvt<unsigned short,char,int>
;	.proc.end.void
.global	
.global	
	.bss
.local	$T62404,0
.local	,4
.local	,4
; Function compile flags: /Ogtpy
	.text
	.comdat	any, ?do_in@?$codecvt@GDH@std@@$$FMBMHAAHPBD1AAPBDPAG3AAPAG@Z
.global	?do_in@?$codecvt@GDH@std@@$$FMBMHAAHPBD1AAPBDPAG3AAPAG@Z ; std::codecvt<unsigned short,char,int>::do_in
?do_in@?$codecvt@GDH@std@@$$FMBMHAAHPBD1AAPBDPAG3AAPAG@Z: ; std::codecvt<unsigned short,char,int>::do_in
;	.proc.def	D:I(IIIIIIII)

; Function Header:
; max stack depth = 6
; function size = 144 bytes
; local varsig tk = 0x1100005D 
; Exception Information:
; 0 handlers, each consisting of filtered handlers

;	.formal.i4 0,"this$" SIG: Optional C Binding Modifier(token:0x68CEDE1).Optional C Binding Modifier(token:0x68CEDE3).ptr.Optional C Binding Modifier(token:0x68CEDE6).valueType (token:0x68CEDE8)
;	.formal.i4 1,"_State$" SIG: Optional C Binding Modifier(token:0x68CF92D).ptr.i4
;	.formal.i4 6,"_Last2$" SIG: ptr.u2
;	.formal.i4 3,"_Last1$" SIG: ptr.Optional C Binding Modifier(token:0x68E807A).Optional C Binding Modifier(token:0x68E807C).i1
;	.formal.i4 5,"_First2$" SIG: ptr.u2
;	.formal.i4 7,"_Mid2$" SIG: Optional C Binding Modifier(token:0x68CEE75).ptr.ptr.u2
;	.formal.i4 2,"_First1$" SIG: ptr.Optional C Binding Modifier(token:0x68E807A).Optional C Binding Modifier(token:0x68E807C).i1
;	.formal.i4 4,"_Mid1$" SIG: Optional C Binding Modifier(token:0x68CF9A9).ptr.ptr.Optional C Binding Modifier(token:0x68CF9AE).Optional C Binding Modifier(token:0x68CF9B0).i1
;	.local.i4 0,"_Bytes$" SIG: i4
;	.local.i4 4,"_Ans$" SIG: i4

;	.proc.beg
; Line 1820
	ldarg.s		4		; _Mid1$
	ldarg.2				; _First1$
	stind.i4	
	ldarg.s		7		; _Mid2$
	ldarg.s		5		; _First2$
	stind.i4	
; Line 1821
	ldarg.s		4		; _Mid1$
	ldind.i4	
	stloc.1				
	ldloc.1				
	ldarg.3				; _Last1$
	beq.s		$LN21@do_in@2
	ldc.i.1		1		; i32 0x1
	br.s		$LN22@do_in@2
$LN21@do_in@2:
	ldc.i.0		0		; i32 0x0
$LN22@do_in@2:
	stloc.s		4		; _Ans$
; Line 1824
	ldloc.1				
	ldarg.3				; _Last1$
	beq.s		$LN9@do_in@2
$LL10@do_in@2:
	ldarg.s		7		; _Mid2$
	ldind.i4	
	stloc.s		5		
	ldloc.s		5		
	ldarg.s		6		; _Last2$
	beq.s		$LN9@do_in@2
; Line 1826
	ldarg.s		4		; _Mid1$
	ldind.i4	
	stloc.1				
	ldloc.s		5		
	ldloc.1				
	ldarg.3				; _Last1$
	ldloc.1				
	sub		
	ldarg.1				; _State$
	ldarg.0				; this$
	ldc.i.8		8		; i32 0x8
	add		
	call		?_Mbrtowc@@$$J0YMHPA_WPBDIPAHPBU_Cvtvec@@@Z
	stloc.0				; _Bytes$
	ldloc.0				; _Bytes$
	ldc.i4.s	-2		; i32 0xfffffffe
	beq.s		$LN6@do_in@2
	ldloc.0				; _Bytes$
	ldc.i.-1	-1		; i32 0xffffffff
	beq.s		$LN5@do_in@2
	ldloc.0				; _Bytes$
	brtrue.s	$LN3@do_in@2
; Line 1836
	ldarg.s		7		; _Mid2$
	ldind.i4	
	ldind.u2	
	brtrue.s	$LN1@do_in@2
; Line 1837
	ldarg.s		4		; _Mid1$
	ldind.i4	
	stloc.3				
	ldloc.3				
	stloc.2				
	ldloc.3				
	ldind.i1	
	brfalse.s	$LN15@do_in@2
$LL16@do_in@2:
	ldloc.2				
	ldc.i.1		1		; i32 0x1
	add		
	stloc.2				
	ldloc.2				
	ldind.i1	
	brtrue.s	$LL16@do_in@2
$LN15@do_in@2:
	ldloc.2				
	ldloc.3				
	sub		
	ldc.i.1		1		; i32 0x1
	add		
	stloc.0				; _Bytes$
$LN3@do_in@2:
; Line 1841
	ldloc.0				; _Bytes$
	ldc.i4.s	-3		; i32 0xfffffffd
	bne.un.s	$LN1@do_in@2
; Line 1842
	ldc.i.0		0		; i32 0x0
	stloc.0				; _Bytes$
$LN1@do_in@2:
; Line 1843
	ldarg.s		4		; _Mid1$
	dup		
	ldind.i4	
	ldloc.0				; _Bytes$
	add		
	stind.i4	
; Line 1844
	ldarg.s		7		; _Mid2$
	dup		
	ldind.i4	
	ldc.i.2		2		; i32 0x2
	add		
	stind.i4	
; Line 1845
	ldc.i.0		0		; i32 0x0
	stloc.s		4		; _Ans$
; Line 1824
	ldarg.s		4		; _Mid1$
	ldind.i4	
	ldarg.3				; _Last1$
	bne.un.s	$LL10@do_in@2
	br.s		$LN9@do_in@2
$LN5@do_in@2:
; Line 1833
	ldc.i.2		2		; i32 0x2
	ret		
$LN6@do_in@2:
; Line 1829
	ldarg.s		4		; _Mid1$
	ldarg.3				; _Last1$
	stind.i4	
; Line 1830
	ldloc.s		4		; _Ans$
	ret		
$LN9@do_in@2:
; Line 1847
	ldloc.s		4		; _Ans$
	ret		
 .end ?do_in@?$codecvt@GDH@std@@$$FMBMHAAHPBD1AAPBDPAG3AAPAG@Z ; std::codecvt<unsigned short,char,int>::do_in
;	.proc.end.i4
.global	
	.bss
.local	$T62418,0
.local	,4
; Function compile flags: /Ogtpy
	.text
	.comdat	any, ?do_out@?$codecvt@GDH@std@@$$FMBMHAAHPBG1AAPBGPAD3AAPAD@Z
.global	?do_out@?$codecvt@GDH@std@@$$FMBMHAAHPBG1AAPBGPAD3AAPAD@Z ; std::codecvt<unsigned short,char,int>::do_out
?do_out@?$codecvt@GDH@std@@$$FMBMHAAHPBG1AAPBGPAD3AAPAD@Z: ; std::codecvt<unsigned short,char,int>::do_out
;	.proc.def	D:I(IIIIIIII)

; Function Header:
; max stack depth = 5
; function size = 168 bytes
; local varsig tk = 0x11000061 
; Exception Information:
; 0 handlers, each consisting of filtered handlers

;	.formal.i4 0,"this$" SIG: Optional C Binding Modifier(token:0x68CEDE1).Optional C Binding Modifier(token:0x68CEDE3).ptr.Optional C Binding Modifier(token:0x68CEDE6).valueType (token:0x68CEDE8)
;	.formal.i4 1,"_State$" SIG: Optional C Binding Modifier(token:0x68CF92D).ptr.i4
;	.formal.i4 6,"_Last2$" SIG: ptr.Optional C Binding Modifier(token:0x68E7F3A).i1
;	.formal.i4 3,"_Last1$" SIG: ptr.Optional C Binding Modifier(token:0x68E47CE).u2
;	.formal.i4 5,"_First2$" SIG: ptr.Optional C Binding Modifier(token:0x68E7F3A).i1
;	.formal.i4 7,"_Mid2$" SIG: Optional C Binding Modifier(token:0x68CF775).ptr.ptr.Optional C Binding Modifier(token:0x68CF77A).i1
;	.formal.i4 2,"_First1$" SIG: ptr.Optional C Binding Modifier(token:0x68E47CE).u2
;	.formal.i4 4,"_Mid1$" SIG: Optional C Binding Modifier(token:0x68CECC1).ptr.ptr.Optional C Binding Modifier(token:0x68CECC6).u2
;	.local.mb5   5,"_Buf$25082" SIG: valueType (token:0x68CF03D)
;	.local.i4 4,"_Stsave$25083" SIG: i4
;	.local.i4 0,"_Bytes$" SIG: i4
;	.local.i4 2,"_Ans$" SIG: i4

;	.proc.beg
; Line 1856
	ldarg.s		4		; _Mid1$
	ldarg.2				; _First1$
	stind.i4	
	ldarg.s		7		; _Mid2$
	ldarg.s		5		; _First2$
	stind.i4	
; Line 1857
	ldarg.s		4		; _Mid1$
	ldind.i4	
	stloc.3				
	ldloc.3				
	ldarg.3				; _Last1$
	beq.s		$LN19@do_out@2
	ldc.i.1		1		; i32 0x1
	br.s		$LN20@do_out@2
$LN19@do_out@2:
	ldc.i.0		0		; i32 0x0
$LN20@do_out@2:
	stloc.2				; _Ans$
; Line 1860
	ldloc.3				
	ldarg.3				; _Last1$
	beq		$LN9@do_out@2
$LL10@do_out@2:
	ldarg.s		7		; _Mid2$
	ldind.i4	
	ldarg.s		6		; _Last2$
	beq		$LN9@do_out@2
; Line 1861
	ldarg.s		7		; _Mid2$
	ldind.i4	
	stloc.1				
	call		?___mb_cur_max_func@@$$J0YAHXZ
	ldarg.s		6		; _Last2$
	ldloc.1				
	sub		
	bgt.s		$LN8@do_out@2
; Line 1863
	ldloc.1				
	ldarg.s		4		; _Mid1$
	ldind.i4	
	ldind.u2	
	ldarg.1				; _State$
	ldarg.0				; this$
	ldc.i.8		8		; i32 0x8
	add		
	call		?_Wcrtomb@@$$FYMHPAD_WPAHPBU_Cvtvec@@@Z
	stloc.0				; _Bytes$
	ldloc.0				; _Bytes$
	ldc.i.0		0		; i32 0x0
	blt.s		$LN16@do_out@2
; Line 1866
	ldarg.s		4		; _Mid1$
	dup		
	ldind.i4	
	ldc.i.2		2		; i32 0x2
	add		
	stind.i4	
	ldarg.s		7		; _Mid2$
	dup		
	ldind.i4	
	ldloc.0				; _Bytes$
	add		
	stind.i4	
	ldc.i.0		0		; i32 0x0
	stloc.2				; _Ans$
; Line 1867
	br.s		$LN1@do_out@2
$LN8@do_out@2:
; Line 1870
	ldarg.1				; _State$
	ldind.i4	
	stloc.s		4		; _Stsave$25083
; Line 1873
	ldloca.s	5		; _Buf$25082
	ldarg.s		4		; _Mid1$
	ldind.i4	
	ldind.u2	
	ldarg.1				; _State$
	ldarg.0				; this$
	ldc.i.8		8		; i32 0x8
	add		
	call		?_Wcrtomb@@$$FYMHPAD_WPAHPBU_Cvtvec@@@Z
	stloc.0				; _Bytes$
	ldloc.0				; _Bytes$
	ldc.i.0		0		; i32 0x0
	blt.s		$LN17@do_out@2
; Line 1875
	ldarg.s		7		; _Mid2$
	ldind.i4	
	stloc.1				
	ldarg.s		6		; _Last2$
	ldloc.1				
	sub		
	ldloc.0				; _Bytes$
	blt.s		$LN18@do_out@2
; Line 1882
	ldloc.1				
	ldloca.s	5		; _Buf$25082
	ldloc.0				; _Bytes$
	cpblk		
; Line 1883
	ldarg.s		4		; _Mid1$
	dup		
	ldind.i4	
	ldc.i.2		2		; i32 0x2
	add		
	stind.i4	
	ldarg.s		7		; _Mid2$
	dup		
	ldind.i4	
	ldloc.0				; _Bytes$
	add		
	stind.i4	
	ldc.i.0		0		; i32 0x0
	stloc.2				; _Ans$
$LN1@do_out@2:
; Line 1860
	ldarg.s		4		; _Mid1$
	ldind.i4	
	ldarg.3				; _Last1$
	bne.un.s	$LL10@do_out@2
; Line 1875
	br.s		$LN9@do_out@2
$LN16@do_out@2:
; Line 1864
	ldc.i.2		2		; i32 0x2
	ret		
$LN17@do_out@2:
; Line 1874
	ldc.i.2		2		; i32 0x2
	ret		
$LN18@do_out@2:
; Line 1877
	ldarg.1				; _State$
	ldloc.s		4		; _Stsave$25083
	stind.i4	
; Line 1878
	ldloc.2				; _Ans$
	ret		
$LN9@do_out@2:
; Line 1886
	ldloc.2				; _Ans$
	ret		
 .end ?do_out@?$codecvt@GDH@std@@$$FMBMHAAHPBG1AAPBGPAD3AAPAD@Z ; std::codecvt<unsigned short,char,int>::do_out
;	.proc.end.i4
	.bss
.local	$T62422,0
; Function compile flags: /Ogtpy
	.text
	.comdat	any, ?do_unshift@?$codecvt@GDH@std@@$$FMBMHAAHPAD1AAPAD@Z
.global	?do_unshift@?$codecvt@GDH@std@@$$FMBMHAAHPAD1AAPAD@Z ; std::codecvt<unsigned short,char,int>::do_unshift
?do_unshift@?$codecvt@GDH@std@@$$FMBMHAAHPAD1AAPAD@Z:	; std::codecvt<unsigned short,char,int>::do_unshift
;	.proc.def	D:I(IIIII)

; Function Header:
; max stack depth = 5
; function size = 70 bytes
; local varsig tk = 0x11000062 
; Exception Information:
; 0 handlers, each consisting of filtered handlers

;	.formal.i4 3,"_Last2$" SIG: ptr.Optional C Binding Modifier(token:0x68E7F3A).i1
;	.formal.i4 0,"this$" SIG: Optional C Binding Modifier(token:0x68CEDE1).Optional C Binding Modifier(token:0x68CEDE3).ptr.Optional C Binding Modifier(token:0x68CEDE6).valueType (token:0x68CEDE8)
;	.formal.i4 1,"_State$" SIG: Optional C Binding Modifier(token:0x68CF92D).ptr.i4
;	.formal.i4 2,"_First2$" SIG: ptr.Optional C Binding Modifier(token:0x68E7F3A).i1
;	.formal.i4 4,"_Mid2$" SIG: Optional C Binding Modifier(token:0x68CF775).ptr.ptr.Optional C Binding Modifier(token:0x68CF77A).i1
;	.local.i4 0,"_Bytes$" SIG: i4
;	.local.mb5   4,"_Buf$" SIG: valueType (token:0x68CF03D)
;	.local.i4 3,"_Stsave$" SIG: i4
;	.local.i4 1,"_Ans$" SIG: i4

;	.proc.beg
; Line 1893
	ldarg.s		4		; _Mid2$
	ldarg.2				; _First2$
	stind.i4	
; Line 1894
	ldc.i.0		0		; i32 0x0
	stloc.1				; _Ans$
; Line 1897
	ldarg.1				; _State$
	ldind.i4	
	stloc.3				; _Stsave$
; Line 1899
	ldloca.s	4		; _Buf$
	ldc.i.0		0		; u16 0x0
	ldarg.1				; _State$
	ldarg.0				; this$
	ldc.i.8		8		; i32 0x8
	add		
	call		?_Wcrtomb@@$$FYMHPAD_WPAHPBU_Cvtvec@@@Z
	stloc.0				; _Bytes$
	ldloc.0				; _Bytes$
	ldc.i.0		0		; i32 0x0
	bgt.s		$LN5@do_unshift@2
; Line 1900
	ldc.i.2		2		; i32 0x2
	stloc.1				; _Ans$
	br.s		$LN1@do_unshift@2
$LN5@do_unshift@2:
; Line 1901
	ldloc.0				; _Bytes$
	ldc.i.1		1		; i32 0x1
	sub		
	stloc.0				; _Bytes$
	ldarg.s		4		; _Mid2$
	ldind.i4	
	stloc.2				
	ldarg.3				; _Last2$
	ldloc.2				
	sub		
	ldloc.0				; _Bytes$
	bge.s		$LN3@do_unshift@2
; Line 1903
	ldarg.1				; _State$
	ldloc.3				; _Stsave$
	stind.i4	
; Line 1904
	ldc.i.1		1		; i32 0x1
	stloc.1				; _Ans$
	br.s		$LN1@do_unshift@2
$LN3@do_unshift@2:
; Line 1906
	ldc.i.0		0		; i32 0x0
	ldloc.0				; _Bytes$
	bge.s		$LN1@do_unshift@2
; Line 1908
	ldloc.2				
	ldloca.s	4		; _Buf$
	ldloc.0				; _Bytes$
	cpblk		
; Line 1909
	ldarg.s		4		; _Mid2$
	dup		
	ldind.i4	
	ldloc.0				; _Bytes$
	add		
	stind.i4	
$LN1@do_unshift@2:
; Line 1911
	ldloc.1				; _Ans$
	ret		
 .end ?do_unshift@?$codecvt@GDH@std@@$$FMBMHAAHPAD1AAPAD@Z ; std::codecvt<unsigned short,char,int>::do_unshift
;	.proc.end.i4
.global	
	.bss
.local	$T62434,0
.local	,4
; Function compile flags: /Ogtpy
	.text
	.comdat	any, ?do_length@?$codecvt@GDH@std@@$$FMBMHABHPBD1I@Z
.global	?do_length@?$codecvt@GDH@std@@$$FMBMHABHPBD1I@Z	; std::codecvt<unsigned short,char,int>::do_length
?do_length@?$codecvt@GDH@std@@$$FMBMHABHPBD1I@Z:	; std::codecvt<unsigned short,char,int>::do_length
;	.proc.def	D:I(IIIII)

; Function Header:
; max stack depth = 6
; function size = 98 bytes
; local varsig tk = 0x1100006B 
; Exception Information:
; 0 handlers, each consisting of filtered handlers

;	.formal.i4 0,"this$" SIG: Optional C Binding Modifier(token:0x68CEDE1).Optional C Binding Modifier(token:0x68CEDE3).ptr.Optional C Binding Modifier(token:0x68CEDE6).valueType (token:0x68CEDE8)
;	.formal.i4 3,"_Last1$" SIG: ptr.Optional C Binding Modifier(token:0x68E807A).Optional C Binding Modifier(token:0x68E807C).i1
;	.formal.u4 4,"_Count$" SIG: u4
;	.formal.i4 2,"_First1$" SIG: ptr.Optional C Binding Modifier(token:0x68E807A).Optional C Binding Modifier(token:0x68E807C).i1
;	.formal.i4 1,"_State$" SIG: Optional C Binding Modifier(token:0x68E4001).ptr.Optional C Binding Modifier(token:0x68E4005).i4
;	.local.i4 3,"$T62431" SIG: ptr.Optional C Binding Modifier(token:0x68E807A).Optional C Binding Modifier(token:0x68E807C).i1
;	.local.i4 1,"_Bytes$25108" SIG: i4
;	.local.u2 4,"_Ch$25109" SIG: u2
;	.local.i4 0,"_Mid1$" SIG: ptr.Optional C Binding Modifier(token:0x68E807A).Optional C Binding Modifier(token:0x68E807C).i1
;	.local.i4 2,"_Wchars$" SIG: i4
;	.local.i4 5,"_Mystate$" SIG: i4

;	.proc.beg
; Line 1920
	ldarg.1				; _State$
	ldind.i4	
	stloc.s		5		; _Mystate$
; Line 1922
	ldc.i.0		0		; i32 0x0
	stloc.2				; _Wchars$
	ldarg.2				; _First1$
	stloc.0				; _Mid1$
; Line 1923
	ldc.i.0		0		; u32 0x0
	ldarg.s		4		; _Count$
	bge.un.s	$LN9@do_length@2
$LL10@do_length@2:
	ldloc.0				; _Mid1$
	ldarg.3				; _Last1$
	beq.s		$LN9@do_length@2
; Line 1929
	ldloca.s	4		; _Ch$25109
	ldloc.0				; _Mid1$
	ldarg.3				; _Last1$
	ldloc.0				; _Mid1$
	sub		
	ldloca.s	5		; _Mystate$
	ldarg.0				; this$
	ldc.i.8		8		; i32 0x8
	add		
	call		?_Mbrtowc@@$$J0YMHPA_WPBDIPAHPBU_Cvtvec@@@Z
	stloc.1				; _Bytes$25108
	ldloc.1				; _Bytes$25108
	ldc.i4.s	-2		; i32 0xfffffffe
	beq.s		$LN6@do_length@2
	ldloc.1				; _Bytes$25108
	ldc.i.-1	-1		; i32 0xffffffff
	beq.s		$LN5@do_length@2
	ldloc.1				; _Bytes$25108
	brtrue.s	$LN3@do_length@2
; Line 1938
	ldloc.s		4		; _Ch$25109
	brtrue.s	$LN1@do_length@2
; Line 1939
	ldloc.0				; _Mid1$
	stloc.3				; $T62431
	ldloc.0				; _Mid1$
	ldind.i1	
	brfalse.s	$LN13@do_length@2
$LL14@do_length@2:
	ldloc.3				; $T62431
	ldc.i.1		1		; i32 0x1
	add		
	stloc.3				; $T62431
	ldloc.3				; $T62431
	ldind.i1	
	brtrue.s	$LL14@do_length@2
$LN13@do_length@2:
	ldloc.3				; $T62431
	ldloc.0				; _Mid1$
	sub		
	ldc.i.1		1		; i32 0x1
	add		
	stloc.1				; _Bytes$25108
$LN3@do_length@2:
; Line 1943
	ldloc.1				; _Bytes$25108
	ldc.i4.s	-3		; i32 0xfffffffd
	bne.un.s	$LN1@do_length@2
; Line 1944
	ldc.i.0		0		; i32 0x0
	stloc.1				; _Bytes$25108
$LN1@do_length@2:
; Line 1945
	ldloc.1				; _Bytes$25108
	ldloc.0				; _Mid1$
	add		
	stloc.0				; _Mid1$
; Line 1946
	ldloc.2				; _Wchars$
	ldc.i.1		1		; i32 0x1
	add		
	stloc.2				; _Wchars$
; Line 1923
	ldloc.2				; _Wchars$
	ldarg.s		4		; _Count$
	blt.un.s	$LL10@do_length@2
	br.s		$LN9@do_length@2
$LN5@do_length@2:
; Line 1935
	ldloc.2				; _Wchars$
	ret		
$LN6@do_length@2:
; Line 1932
	ldloc.2				; _Wchars$
	ret		
$LN9@do_length@2:
; Line 1949
	ldloc.2				; _Wchars$
	ret		
 .end ?do_length@?$codecvt@GDH@std@@$$FMBMHABHPBD1I@Z	; std::codecvt<unsigned short,char,int>::do_length
;	.proc.end.i4
; Function compile flags: /Ogtpy
	.text
	.comdat	any, ?do_always_noconv@?$codecvt@GDH@std@@$$FMBM_NXZ
.global	?do_always_noconv@?$codecvt@GDH@std@@$$FMBM_NXZ	; std::codecvt<unsigned short,char,int>::do_always_noconv
?do_always_noconv@?$codecvt@GDH@std@@$$FMBM_NXZ:	; std::codecvt<unsigned short,char,int>::do_always_noconv
;	.proc.def	D:I(I)

; Function Header:
; max stack depth = 1
; function size = 2 bytes
; local varsig tk = 0x0 
; Exception Information:
; 0 handlers, each consisting of filtered handlers


;	.proc.beg
; Line 1954
	ldc.i.0		0		; u8 0x0
	ret		
 .end ?do_always_noconv@?$codecvt@GDH@std@@$$FMBM_NXZ	; std::codecvt<unsigned short,char,int>::do_always_noconv
;	.proc.end.u1
; Function compile flags: /Ogtpy
	.text
	.comdat	any, ?do_max_length@?$codecvt@GDH@std@@$$FMBMHXZ
.global	?do_max_length@?$codecvt@GDH@std@@$$FMBMHXZ	; std::codecvt<unsigned short,char,int>::do_max_length
?do_max_length@?$codecvt@GDH@std@@$$FMBMHXZ:		; std::codecvt<unsigned short,char,int>::do_max_length
;	.proc.def	D:I(I)

; Function Header:
; max stack depth = 1
; function size = 2 bytes
; local varsig tk = 0x0 
; Exception Information:
; 0 handlers, each consisting of filtered handlers


;	.proc.beg
; Line 1959
	ldc.i.5		5		; i32 0x5
	ret		
 .end ?do_max_length@?$codecvt@GDH@std@@$$FMBMHXZ	; std::codecvt<unsigned short,char,int>::do_max_length
;	.proc.end.i4
	.bss
.local	$T62461,0
; Function compile flags: /Ogtpy
	.text
	.comdat	any, ??_E?$codecvt@GDH@std@@$$FMAMPAXI@Z
.global	??_E?$codecvt@GDH@std@@$$FMAMPAXI@Z		; std::codecvt<unsigned short,char,int>::`vector deleting destructor'
??_E?$codecvt@GDH@std@@$$FMAMPAXI@Z:			; std::codecvt<unsigned short,char,int>::`vector deleting destructor'
;	.proc.def	D:I(II)

; Function Header:
; max stack depth = 4
; function size = 78 bytes
; local varsig tk = 0x1100006C 
; Exception Information:
; 0 handlers, each consisting of filtered handlers

;	.formal.i4 0,"this$" SIG: Optional C Binding Modifier(token:0x68CEB05).Optional C Binding Modifier(token:0x68CEB07).ptr.valueType (token:0x68CEB0A)
;	.formal.u4 1,"__flags$" SIG: u4
;	.local.i4 0,"$T62460" SIG: Optional C Binding Modifier(token:0x68CEB05).Optional C Binding Modifier(token:0x68CEB07).ptr.valueType (token:0x68CEB0A)

;	.proc.beg
	ldarg.1				; __flags$
	ldc.i.2		2		; u32 0x2
	and		
	brfalse.s	$LN3@vector@4
	ldarg.0				; this$
	ldc.i.4		4		; i32 0x4
	sub		
	stloc.0				; $T62460
	ldarg.0				; this$
	ldc.i4.s	16		; u32 0x10
	ldloc.0				; $T62460
	ldind.i4	
	ldftn		??1?$codecvt@GDH@std@@$$FMAM@XZ
	call		??_M@$$FYMXPAXIHP6MX0@Z@Z
	ldarg.1				; __flags$
	ldc.i.1		1		; u32 0x1
	and		
	brfalse.s	$LN2@vector@4
	ldloc.0				; $T62460
	call		??_V@$$FYMXPAX@Z
$LN2@vector@4:
	ldloc.0				; $T62460
	ret		
$LN3@vector@4:
	ldarg.0				; this$
	ldsflda		??_7?$codecvt@GDH@std@@6B@
	ldc.i.4		4		; i32 0x4
	add		
	stind.i4	
	ldarg.0				; this$
	ldsflda		??_7codecvt_base@std@@6B@
	ldc.i.4		4		; i32 0x4
	add		
	stind.i4	
	ldarg.0				; this$
	ldsflda		??_7facet@locale@std@@6B@
	ldc.i.4		4		; i32 0x4
	add		
	stind.i4	
	ldarg.1				; __flags$
	ldc.i.1		1		; u32 0x1
	and		
	brfalse.s	$LN1@vector@4
	ldarg.0				; this$
	call		??3@$$FYMXPAX@Z
$LN1@vector@4:
	ldarg.0				; this$
	ret		
 .end ??_E?$codecvt@GDH@std@@$$FMAMPAXI@Z		; std::codecvt<unsigned short,char,int>::`vector deleting destructor'
;	.proc.end.i4
.global	
	.bss
.local	,4
; Function compile flags: /Ogtpy
	.text
	.comdat	any, ??1ctype_base@std@@$$FUAM@XZ
.global	??1ctype_base@std@@$$FUAM@XZ			; std::ctype_base::~ctype_base
??1ctype_base@std@@$$FUAM@XZ:				; std::ctype_base::~ctype_base
;	.proc.def	D:V(I)

; Function Header:
; max stack depth = 3
; function size = 19 bytes
; local varsig tk = 0x0 
; Exception Information:
; 0 handlers, each consisting of filtered handlers

;	.formal.i4 0,"this$" SIG: Optional C Binding Modifier(token:0x68CE8F1).Optional C Binding Modifier(token:0x68CE8F3).ptr.valueType (token:0x68CE8F6)

;	.proc.beg
; Line 2015
	ldarg.0				; this$
	ldsflda		??_7ctype_base@std@@6B@
	ldc.i.4		4		; i32 0x4
	add		
	stind.i4	
; Line 2016
	ldarg.0				; this$
	ldsflda		??_7facet@locale@std@@6B@
	ldc.i.4		4		; i32 0x4
	add		
	stind.i4	
	ret		
 .end ??1ctype_base@std@@$$FUAM@XZ			; std::ctype_base::~ctype_base
;	.proc.end.void
	.bss
.local	$T62485,0
; Function compile flags: /Ogtpy
	.text
	.comdat	any, ??_Ectype_base@std@@$$FUAMPAXI@Z
.global	??_Ectype_base@std@@$$FUAMPAXI@Z		; std::ctype_base::`vector deleting destructor'
??_Ectype_base@std@@$$FUAMPAXI@Z:			; std::ctype_base::`vector deleting destructor'
;	.proc.def	D:I(II)

; Function Header:
; max stack depth = 4
; function size = 68 bytes
; local varsig tk = 0x1100006E 
; Exception Information:
; 0 handlers, each consisting of filtered handlers

;	.formal.i4 0,"this$" SIG: Optional C Binding Modifier(token:0x68CE8F1).Optional C Binding Modifier(token:0x68CE8F3).ptr.valueType (token:0x68CE8F6)
;	.formal.u4 1,"__flags$" SIG: u4
;	.local.i4 0,"$T62484" SIG: Optional C Binding Modifier(token:0x68CE8F1).Optional C Binding Modifier(token:0x68CE8F3).ptr.valueType (token:0x68CE8F6)

;	.proc.beg
	ldarg.1				; __flags$
	ldc.i.2		2		; u32 0x2
	and		
	brfalse.s	$LN3@vector@5
	ldarg.0				; this$
	ldc.i.4		4		; i32 0x4
	sub		
	stloc.0				; $T62484
	ldarg.0				; this$
	ldc.i.8		8		; u32 0x8
	ldloc.0				; $T62484
	ldind.i4	
	ldftn		??1ctype_base@std@@$$FUAM@XZ
	call		??_M@$$FYMXPAXIHP6MX0@Z@Z
	ldarg.1				; __flags$
	ldc.i.1		1		; u32 0x1
	and		
	brfalse.s	$LN2@vector@5
	ldloc.0				; $T62484
	call		??_V@$$FYMXPAX@Z
$LN2@vector@5:
	ldloc.0				; $T62484
	ret		
$LN3@vector@5:
	ldarg.0				; this$
	ldsflda		??_7ctype_base@std@@6B@
	ldc.i.4		4		; i32 0x4
	add		
	stind.i4	
	ldarg.0				; this$
	ldsflda		??_7facet@locale@std@@6B@
	ldc.i.4		4		; i32 0x4
	add		
	stind.i4	
	ldarg.1				; __flags$
	ldc.i.1		1		; u32 0x1
	and		
	brfalse.s	$LN1@vector@5
	ldarg.0				; this$
	call		??3@$$FYMXPAX@Z
$LN1@vector@5:
	ldarg.0				; this$
	ret		
 .end ??_Ectype_base@std@@$$FUAMPAXI@Z			; std::ctype_base::`vector deleting destructor'
;	.proc.end.i4
.global	
	.bss
.local	$T62489,0
.local	,4
; Function compile flags: /Ogtpy
	.text
	.comdat	any, ?_Tidy@?$ctype@D@std@@$$FIAMXXZ
.global	?_Tidy@?$ctype@D@std@@$$FIAMXXZ			; std::ctype<char>::_Tidy
?_Tidy@?$ctype@D@std@@$$FIAMXXZ:			; std::ctype<char>::_Tidy
;	.proc.def	D:V(I)

; Function Header:
; max stack depth = 2
; function size = 37 bytes
; local varsig tk = 0x11000052 
; Exception Information:
; 0 handlers, each consisting of filtered handlers

;	.formal.i4 0,"this$" SIG: Optional C Binding Modifier(token:0x68CE051).Optional C Binding Modifier(token:0x68CE053).ptr.valueType (token:0x68CE056)

;	.proc.beg
; Line 2405
	ldarg.0				; this$
	ldc.i4.s	20		; i32 0x14
	add		
	ldind.i4	
	stloc.0				
	ldc.i.0		0		; i32 0x0
	ldloc.0				
	bge.s		$LN3@Tidy@2
; Line 2406
	ldarg.0				; this$
	ldc.i4.s	16		; i32 0x10
	add		
	ldind.i4	
	call		?free@@$$J0YAXPAX@Z
	br.s		$LN1@Tidy@2
$LN3@Tidy@2:
; Line 2407
	ldloc.0				
	ldc.i.0		0		; i32 0x0
	bge.s		$LN1@Tidy@2
; Line 2408
	ldarg.0				; this$
	ldc.i4.s	16		; i32 0x10
	add		
	ldind.i4	
	call		??_V@$$FYMXPAX@Z
$LN1@Tidy@2:
; Line 2409
	ret		
 .end ?_Tidy@?$ctype@D@std@@$$FIAMXXZ			; std::ctype<char>::_Tidy
;	.proc.end.void
.global	
.global	
	.bss
.local	,4
.local	,4
; Function compile flags: /Ogtpy
	.text
	.comdat	any, ?do_tolower@?$ctype@D@std@@$$FMBMDD@Z
.global	?do_tolower@?$ctype@D@std@@$$FMBMDD@Z		; std::ctype<char>::do_tolower
?do_tolower@?$ctype@D@std@@$$FMBMDD@Z:			; std::ctype<char>::do_tolower
;	.proc.def	D:I(II)

; Function Header:
; max stack depth = 3
; function size = 12 bytes
; local varsig tk = 0x0 
; Exception Information:
; 0 handlers, each consisting of filtered handlers

;	.formal.i4 0,"this$" SIG: Optional C Binding Modifier(token:0x68CE5A1).Optional C Binding Modifier(token:0x68CE5A3).ptr.Optional C Binding Modifier(token:0x68CE5A6).valueType (token:0x68CE5A8)
;	.formal.i1 1,"_Ch$" SIG: Optional C Binding Modifier(token:0x68E42A9).i1

;	.proc.beg
; Line 2413
	ldarg.1				; _Ch$
	conv.u1		
	ldarg.0				; this$
	ldc.i.8		8		; i32 0x8
	add		
	call		?_Tolower@@$$FYMHHPBU_Ctypevec@@@Z
	conv.i1		
	ret		
 .end ?do_tolower@?$ctype@D@std@@$$FMBMDD@Z		; std::ctype<char>::do_tolower
;	.proc.end.i1
	.bss
.local	$T62499,0
; Function compile flags: /Ogtpy
	.text
	.comdat	any, ?do_tolower@?$ctype@D@std@@$$FMBMPBDPADPBD@Z
.global	?do_tolower@?$ctype@D@std@@$$FMBMPBDPADPBD@Z	; std::ctype<char>::do_tolower
?do_tolower@?$ctype@D@std@@$$FMBMPBDPADPBD@Z:		; std::ctype<char>::do_tolower
;	.proc.def	D:I(III)

; Function Header:
; max stack depth = 3
; function size = 30 bytes
; local varsig tk = 0x11000072 
; Exception Information:
; 0 handlers, each consisting of filtered handlers

;	.formal.i4 0,"this$" SIG: Optional C Binding Modifier(token:0x68CE5A1).Optional C Binding Modifier(token:0x68CE5A3).ptr.Optional C Binding Modifier(token:0x68CE5A6).valueType (token:0x68CE5A8)
;	.formal.i4 2,"_Last$" SIG: ptr.Optional C Binding Modifier(token:0x68E807A).Optional C Binding Modifier(token:0x68E807C).i1
;	.formal.i4 1,"_First$" SIG: ptr.Optional C Binding Modifier(token:0x68E7F3A).i1
;	.local.i4 0,"$T62498" SIG: Optional C Binding Modifier(token:0x68CE5A1).Optional C Binding Modifier(token:0x68CE5A3).ptr.Optional C Binding Modifier(token:0x68CE5A6).valueType (token:0x68CE5A8)

;	.proc.beg
; Line 2420
	ldarg.1				; _First$
	ldarg.2				; _Last$
	beq.s		$LN1@do_tolower
; Line 2421
	ldarg.0				; this$
	ldc.i.8		8		; i32 0x8
	add		
	stloc.0				; $T62498
$LL3@do_tolower:
	ldarg.1				; _First$
	dup		
	ldind.i1	
	conv.u1		
	ldloc.0				; $T62498
	call		?_Tolower@@$$FYMHHPBU_Ctypevec@@@Z
	stind.i1	
; Line 2420
	ldarg.1				; _First$
	ldc.i.1		1		; i32 0x1
	add		
	starg.s		1		; _First$
	ldarg.1				; _First$
	ldarg.2				; _Last$
	bne.un.s	$LL3@do_tolower
$LN1@do_tolower:
; Line 2422
	ldarg.1				; _First$
	ret		
 .end ?do_tolower@?$ctype@D@std@@$$FMBMPBDPADPBD@Z	; std::ctype<char>::do_tolower
;	.proc.end.i4
; Function compile flags: /Ogtpy
	.text
	.comdat	any, ?do_toupper@?$ctype@D@std@@$$FMBMDD@Z
.global	?do_toupper@?$ctype@D@std@@$$FMBMDD@Z		; std::ctype<char>::do_toupper
?do_toupper@?$ctype@D@std@@$$FMBMDD@Z:			; std::ctype<char>::do_toupper
;	.proc.def	D:I(II)

; Function Header:
; max stack depth = 3
; function size = 12 bytes
; local varsig tk = 0x0 
; Exception Information:
; 0 handlers, each consisting of filtered handlers

;	.formal.i4 0,"this$" SIG: Optional C Binding Modifier(token:0x68CE5A1).Optional C Binding Modifier(token:0x68CE5A3).ptr.Optional C Binding Modifier(token:0x68CE5A6).valueType (token:0x68CE5A8)
;	.formal.i1 1,"_Ch$" SIG: Optional C Binding Modifier(token:0x68E42A9).i1

;	.proc.beg
; Line 2427
	ldarg.1				; _Ch$
	conv.u1		
	ldarg.0				; this$
	ldc.i.8		8		; i32 0x8
	add		
	call		?_Toupper@@$$FYMHHPBU_Ctypevec@@@Z
	conv.i1		
	ret		
 .end ?do_toupper@?$ctype@D@std@@$$FMBMDD@Z		; std::ctype<char>::do_toupper
;	.proc.end.i1
	.bss
.local	$T62507,0
; Function compile flags: /Ogtpy
	.text
	.comdat	any, ?do_toupper@?$ctype@D@std@@$$FMBMPBDPADPBD@Z
.global	?do_toupper@?$ctype@D@std@@$$FMBMPBDPADPBD@Z	; std::ctype<char>::do_toupper
?do_toupper@?$ctype@D@std@@$$FMBMPBDPADPBD@Z:		; std::ctype<char>::do_toupper
;	.proc.def	D:I(III)

; Function Header:
; max stack depth = 3
; function size = 30 bytes
; local varsig tk = 0x11000072 
; Exception Information:
; 0 handlers, each consisting of filtered handlers

;	.formal.i4 0,"this$" SIG: Optional C Binding Modifier(token:0x68CE5A1).Optional C Binding Modifier(token:0x68CE5A3).ptr.Optional C Binding Modifier(token:0x68CE5A6).valueType (token:0x68CE5A8)
;	.formal.i4 2,"_Last$" SIG: ptr.Optional C Binding Modifier(token:0x68E807A).Optional C Binding Modifier(token:0x68E807C).i1
;	.formal.i4 1,"_First$" SIG: ptr.Optional C Binding Modifier(token:0x68E7F3A).i1
;	.local.i4 0,"$T62506" SIG: Optional C Binding Modifier(token:0x68CE5A1).Optional C Binding Modifier(token:0x68CE5A3).ptr.Optional C Binding Modifier(token:0x68CE5A6).valueType (token:0x68CE5A8)

;	.proc.beg
; Line 2434
	ldarg.1				; _First$
	ldarg.2				; _Last$
	beq.s		$LN1@do_toupper
; Line 2435
	ldarg.0				; this$
	ldc.i.8		8		; i32 0x8
	add		
	stloc.0				; $T62506
$LL3@do_toupper:
	ldarg.1				; _First$
	dup		
	ldind.i1	
	conv.u1		
	ldloc.0				; $T62506
	call		?_Toupper@@$$FYMHHPBU_Ctypevec@@@Z
	stind.i1	
; Line 2434
	ldarg.1				; _First$
	ldc.i.1		1		; i32 0x1
	add		
	starg.s		1		; _First$
	ldarg.1				; _First$
	ldarg.2				; _Last$
	bne.un.s	$LL3@do_toupper
$LN1@do_toupper:
; Line 2436
	ldarg.1				; _First$
	ret		
 .end ?do_toupper@?$ctype@D@std@@$$FMBMPBDPADPBD@Z	; std::ctype<char>::do_toupper
;	.proc.end.i4
; Function compile flags: /Ogtpy
	.text
	.comdat	any, ?do_widen@?$ctype@D@std@@$$FMBMDD@Z
.global	?do_widen@?$ctype@D@std@@$$FMBMDD@Z		; std::ctype<char>::do_widen
?do_widen@?$ctype@D@std@@$$FMBMDD@Z:			; std::ctype<char>::do_widen
;	.proc.def	D:I(II)

; Function Header:
; max stack depth = 1
; function size = 2 bytes
; local varsig tk = 0x0 
; Exception Information:
; 0 handlers, each consisting of filtered handlers

;	.formal.i1 1,"_Byte$" SIG: Optional C Binding Modifier(token:0x68E42A9).i1

;	.proc.beg
; Line 2441
	ldarg.1				; _Byte$
	ret		
 .end ?do_widen@?$ctype@D@std@@$$FMBMDD@Z		; std::ctype<char>::do_widen
;	.proc.end.i1
; Function compile flags: /Ogtpy
	.text
	.comdat	any, ?do_widen@?$ctype@D@std@@$$FMBMPBDPBD0PAD@Z
.global	?do_widen@?$ctype@D@std@@$$FMBMPBDPBD0PAD@Z	; std::ctype<char>::do_widen
?do_widen@?$ctype@D@std@@$$FMBMPBDPBD0PAD@Z:		; std::ctype<char>::do_widen
;	.proc.def	D:I(IIII)

; Function Header:
; max stack depth = 4
; function size = 9 bytes
; local varsig tk = 0x0 
; Exception Information:
; 0 handlers, each consisting of filtered handlers

;	.formal.i4 2,"_Last$" SIG: ptr.Optional C Binding Modifier(token:0x68E807A).Optional C Binding Modifier(token:0x68E807C).i1
;	.formal.i4 1,"_First$" SIG: ptr.Optional C Binding Modifier(token:0x68E807A).Optional C Binding Modifier(token:0x68E807C).i1
;	.formal.i4 3,"_Dest$" SIG: ptr.Optional C Binding Modifier(token:0x68E7F3A).i1

;	.proc.beg
; Line 2449
	ldarg.3				; _Dest$
	ldarg.1				; _First$
	ldarg.2				; _Last$
	ldarg.1				; _First$
	sub		
	cpblk		
; Line 2450
	ldarg.2				; _Last$
	ret		
 .end ?do_widen@?$ctype@D@std@@$$FMBMPBDPBD0PAD@Z	; std::ctype<char>::do_widen
;	.proc.end.i4
; Function compile flags: /Ogtpy
	.text
	.comdat	any, ?do_narrow@?$ctype@D@std@@$$FMBMDDD@Z
.global	?do_narrow@?$ctype@D@std@@$$FMBMDDD@Z		; std::ctype<char>::do_narrow
?do_narrow@?$ctype@D@std@@$$FMBMDDD@Z:			; std::ctype<char>::do_narrow
;	.proc.def	D:I(III)

; Function Header:
; max stack depth = 1
; function size = 2 bytes
; local varsig tk = 0x0 
; Exception Information:
; 0 handlers, each consisting of filtered handlers

;	.formal.i1 1,"_Ch$" SIG: Optional C Binding Modifier(token:0x68E42A9).i1

;	.proc.beg
; Line 2455
	ldarg.1				; _Ch$
	ret		
 .end ?do_narrow@?$ctype@D@std@@$$FMBMDDD@Z		; std::ctype<char>::do_narrow
;	.proc.end.i1
; Function compile flags: /Ogtpy
	.text
	.comdat	any, ?do_narrow@?$ctype@D@std@@$$FMBMPBDPBD0DPAD@Z
.global	?do_narrow@?$ctype@D@std@@$$FMBMPBDPBD0DPAD@Z	; std::ctype<char>::do_narrow
?do_narrow@?$ctype@D@std@@$$FMBMPBDPBD0DPAD@Z:		; std::ctype<char>::do_narrow
;	.proc.def	D:I(IIIII)

; Function Header:
; max stack depth = 4
; function size = 10 bytes
; local varsig tk = 0x0 
; Exception Information:
; 0 handlers, each consisting of filtered handlers

;	.formal.i4 2,"_Last$" SIG: ptr.Optional C Binding Modifier(token:0x68E807A).Optional C Binding Modifier(token:0x68E807C).i1
;	.formal.i4 1,"_First$" SIG: ptr.Optional C Binding Modifier(token:0x68E807A).Optional C Binding Modifier(token:0x68E807C).i1
;	.formal.i4 4,"_Dest$" SIG: ptr.Optional C Binding Modifier(token:0x68E7F3A).i1

;	.proc.beg
; Line 2463
	ldarg.s		4		; _Dest$
	ldarg.1				; _First$
	ldarg.2				; _Last$
	ldarg.1				; _First$
	sub		
	cpblk		
; Line 2464
	ldarg.2				; _Last$
	ret		
 .end ?do_narrow@?$ctype@D@std@@$$FMBMPBDPBD0DPAD@Z	; std::ctype<char>::do_narrow
;	.proc.end.i4
.global	
.global	
	.bss
.local	$SigTok$$$A8?$ctype@_W@std@@BM_NF_W@Z,4
.local	,4
.local	,4
; Function compile flags: /Ogtpy
	.text
	.comdat	any, ?is@?$ctype@_W@std@@$$FQBM_NF_W@Z
.global	?is@?$ctype@_W@std@@$$FQBM_NF_W@Z		; std::ctype<wchar_t>::is
?is@?$ctype@_W@std@@$$FQBM_NF_W@Z:			; std::ctype<wchar_t>::is
;	.proc.def	D:I(III)

; Function Header:
; max stack depth = 5
; function size = 14 bytes
; local varsig tk = 0x0 
; Exception Information:
; 0 handlers, each consisting of filtered handlers

;	.formal.u2 2,"_Ch$" SIG: char
;	.formal.i2 1,"_Maskval$" SIG: i2
;	.formal.i4 0,"this$" SIG: Optional C Binding Modifier(token:0x68CDB11).Optional C Binding Modifier(token:0x68CDB13).ptr.Optional C Binding Modifier(token:0x68CDB16).valueType (token:0x68CDB18)

;	.proc.beg
; Line 2484
	ldarg.0				; this$
	ldarg.1				; _Maskval$
	ldarg.2				; _Ch$
	ldarg.0				; this$
	ldind.i4	
	ldc.i.8		8		; i32 0x8
	add		
	ldind.i4	
	calli		D:I(III)
	ret		
 .end ?is@?$ctype@_W@std@@$$FQBM_NF_W@Z			; std::ctype<wchar_t>::is
;	.proc.end.u1
.global	
	.bss
.local	,4
; Function compile flags: /Ogtpy
	.text
	.comdat	any, ??1?$ctype@_W@std@@$$FMAM@XZ
.global	??1?$ctype@_W@std@@$$FMAM@XZ			; std::ctype<wchar_t>::~ctype<wchar_t>
??1?$ctype@_W@std@@$$FMAM@XZ:				; std::ctype<wchar_t>::~ctype<wchar_t>
;	.proc.def	D:V(I)

; Function Header:
; max stack depth = 3
; function size = 62 bytes
; local varsig tk = 0x0 
; Exception Information:
; 1 handlers, each consisting of filtered handlers

;	.formal.i4 0,"this$" SIG: Optional C Binding Modifier(token:0x68CD609).Optional C Binding Modifier(token:0x68CD60B).ptr.valueType (token:0x68CD60E)

;	.proc.beg
; Line 2574
	ldarg.0				; this$
	ldsflda		??_7?$ctype@_W@std@@6B@
	ldc.i.4		4		; i32 0x4
	add		
	stind.i4	
$LN10@ctype:
; Line 2575
	ldarg.0				; this$
	ldc.i4.s	20		; i32 0x14
	add		
	ldind.i4	
	brtrue.s	$LN12@ctype
	leave.s		$LN1@ctype
$LN12@ctype:
; Line 2576
	ldarg.0				; this$
	ldc.i4.s	16		; i32 0x10
	add		
	ldind.i4	
	call		?free@@$$J0YAXPAX@Z
	leave.s		$LN1@ctype
$LN11@ctype:
	ldftn		??1ctype_base@std@@$$FUAM@XZ
	ldarg.0				; this$
	call		?___CxxCallUnwindDtor@@$$J0YMXP6MXPAX@Z0@Z
	endfinally	
$LN1@ctype:
; Line 2577
	ldarg.0				; this$
	ldsflda		??_7ctype_base@std@@6B@
	ldc.i.4		4		; i32 0x4
	add		
	stind.i4	
	ldarg.0				; this$
	ldsflda		??_7facet@locale@std@@6B@
	ldc.i.4		4		; i32 0x4
	add		
	stind.i4	
	ret		
 .end ??1?$ctype@_W@std@@$$FMAM@XZ			; std::ctype<wchar_t>::~ctype<wchar_t>
;	.proc.end.void
; Function compile flags: /Ogtpy
	.text
	.comdat	any, ?do_is@?$ctype@_W@std@@$$FMBM_NF_W@Z
.global	?do_is@?$ctype@_W@std@@$$FMBM_NF_W@Z		; std::ctype<wchar_t>::do_is
?do_is@?$ctype@_W@std@@$$FMBM_NF_W@Z:			; std::ctype<wchar_t>::do_is
;	.proc.def	D:I(III)

; Function Header:
; max stack depth = 3
; function size = 21 bytes
; local varsig tk = 0x0 
; Exception Information:
; 0 handlers, each consisting of filtered handlers

;	.formal.i2 1,"_Maskval$" SIG: i2
;	.formal.i4 0,"this$" SIG: Optional C Binding Modifier(token:0x68CDB11).Optional C Binding Modifier(token:0x68CDB13).ptr.Optional C Binding Modifier(token:0x68CDB16).valueType (token:0x68CDB18)
;	.formal.u2 2,"_Ch$" SIG: char

;	.proc.beg
; Line 2587
	ldarg.2				; _Ch$
	ldarg.0				; this$
	ldc.i.8		8		; i32 0x8
	add		
	call		?_Getwctype@@$$FYMF_WPBU_Ctypevec@@@Z
	ldarg.1				; _Maskval$
	and		
	conv.i2		
	ldc.i.0		0		; i16 0x0
	bne.un.s	$LN5@do_is
	ldc.i.0		0		; i32 0x0
	br.s		$LN6@do_is
$LN5@do_is:
	ldc.i.1		1		; i32 0x1
$LN6@do_is:
	conv.u1		
	ret		
 .end ?do_is@?$ctype@_W@std@@$$FMBM_NF_W@Z		; std::ctype<wchar_t>::do_is
;	.proc.end.u1
.global	
	.bss
.local	,4
; Function compile flags: /Ogtpy
	.text
	.comdat	any, ?do_is@?$ctype@_W@std@@$$FMBMPB_WPB_W0PAF@Z
.global	?do_is@?$ctype@_W@std@@$$FMBMPB_WPB_W0PAF@Z	; std::ctype<wchar_t>::do_is
?do_is@?$ctype@_W@std@@$$FMBMPB_WPB_W0PAF@Z:		; std::ctype<wchar_t>::do_is
;	.proc.def	D:I(IIII)

; Function Header:
; max stack depth = 5
; function size = 12 bytes
; local varsig tk = 0x0 
; Exception Information:
; 0 handlers, each consisting of filtered handlers

;	.formal.i4 0,"this$" SIG: Optional C Binding Modifier(token:0x68CDB11).Optional C Binding Modifier(token:0x68CDB13).ptr.Optional C Binding Modifier(token:0x68CDB16).valueType (token:0x68CDB18)
;	.formal.i4 3,"_Dest$" SIG: ptr.i2
;	.formal.i4 2,"_Last$" SIG: ptr.Optional C Binding Modifier(token:0x68E95FE).char
;	.formal.i4 1,"_First$" SIG: ptr.Optional C Binding Modifier(token:0x68E95FE).char

;	.proc.beg
; Line 2595
	ldarg.1				; _First$
	ldarg.2				; _Last$
	ldarg.3				; _Dest$
	ldarg.0				; this$
	ldc.i.8		8		; i32 0x8
	add		
	call		?_Getwctypes@@$$FYMPB_WPB_W0PAFPBU_Ctypevec@@@Z
	ret		
 .end ?do_is@?$ctype@_W@std@@$$FMBMPB_WPB_W0PAF@Z	; std::ctype<wchar_t>::do_is
;	.proc.end.i4
	.bss
.local	$T62555,0
; Function compile flags: /Ogtpy
	.text
	.comdat	any, ?do_scan_is@?$ctype@_W@std@@$$FMBMPB_WFPB_W0@Z
.global	?do_scan_is@?$ctype@_W@std@@$$FMBMPB_WFPB_W0@Z	; std::ctype<wchar_t>::do_scan_is
?do_scan_is@?$ctype@_W@std@@$$FMBMPB_WFPB_W0@Z:		; std::ctype<wchar_t>::do_scan_is
;	.proc.def	D:I(IIII)

; Function Header:
; max stack depth = 5
; function size = 33 bytes
; local varsig tk = 0x11000077 
; Exception Information:
; 0 handlers, each consisting of filtered handlers

;	.formal.i2 1,"_Maskval$" SIG: i2
;	.formal.i4 0,"this$" SIG: Optional C Binding Modifier(token:0x68CDB11).Optional C Binding Modifier(token:0x68CDB13).ptr.Optional C Binding Modifier(token:0x68CDB16).valueType (token:0x68CDB18)
;	.formal.i4 3,"_Last$" SIG: ptr.Optional C Binding Modifier(token:0x68E95FE).char
;	.formal.i4 2,"_First$" SIG: ptr.Optional C Binding Modifier(token:0x68E95FE).char
;	.local.u2 0,"$T62552" SIG: char

;	.proc.beg
; Line 2602
	ldarg.2				; _First$
	ldarg.3				; _Last$
	beq.s		$LN1@do_scan_is
$LL3@do_scan_is:
	ldarg.2				; _First$
	ldind.u2	
	stloc.0				; $T62552
	ldarg.0				; this$
	ldarg.1				; _Maskval$
	ldloc.0				; $T62552
	ldarg.0				; this$
	ldind.i4	
	ldc.i.8		8		; i32 0x8
	add		
	ldind.i4	
	calli		D:I(III)
	brtrue.s	$LN1@do_scan_is
	ldarg.2				; _First$
	ldc.i.2		2		; i32 0x2
	add		
	starg.s		2		; _First$
	ldarg.2				; _First$
	ldarg.3				; _Last$
	bne.un.s	$LL3@do_scan_is
$LN1@do_scan_is:
; Line 2604
	ldarg.2				; _First$
	ret		
 .end ?do_scan_is@?$ctype@_W@std@@$$FMBMPB_WFPB_W0@Z	; std::ctype<wchar_t>::do_scan_is
;	.proc.end.i4
	.bss
.local	$T62564,0
; Function compile flags: /Ogtpy
	.text
	.comdat	any, ?do_scan_not@?$ctype@_W@std@@$$FMBMPB_WFPB_W0@Z
.global	?do_scan_not@?$ctype@_W@std@@$$FMBMPB_WFPB_W0@Z	; std::ctype<wchar_t>::do_scan_not
?do_scan_not@?$ctype@_W@std@@$$FMBMPB_WFPB_W0@Z:	; std::ctype<wchar_t>::do_scan_not
;	.proc.def	D:I(IIII)

; Function Header:
; max stack depth = 5
; function size = 33 bytes
; local varsig tk = 0x11000077 
; Exception Information:
; 0 handlers, each consisting of filtered handlers

;	.formal.i2 1,"_Maskval$" SIG: i2
;	.formal.i4 0,"this$" SIG: Optional C Binding Modifier(token:0x68CDB11).Optional C Binding Modifier(token:0x68CDB13).ptr.Optional C Binding Modifier(token:0x68CDB16).valueType (token:0x68CDB18)
;	.formal.i4 3,"_Last$" SIG: ptr.Optional C Binding Modifier(token:0x68E95FE).char
;	.formal.i4 2,"_First$" SIG: ptr.Optional C Binding Modifier(token:0x68E95FE).char
;	.local.u2 0,"$T62561" SIG: char

;	.proc.beg
; Line 2611
	ldarg.2				; _First$
	ldarg.3				; _Last$
	beq.s		$LN1@do_scan_no
$LL3@do_scan_no:
	ldarg.2				; _First$
	ldind.u2	
	stloc.0				; $T62561
	ldarg.0				; this$
	ldarg.1				; _Maskval$
	ldloc.0				; $T62561
	ldarg.0				; this$
	ldind.i4	
	ldc.i.8		8		; i32 0x8
	add		
	ldind.i4	
	calli		D:I(III)
	brfalse.s	$LN1@do_scan_no
	ldarg.2				; _First$
	ldc.i.2		2		; i32 0x2
	add		
	starg.s		2		; _First$
	ldarg.2				; _First$
	ldarg.3				; _Last$
	bne.un.s	$LL3@do_scan_no
$LN1@do_scan_no:
; Line 2613
	ldarg.2				; _First$
	ret		
 .end ?do_scan_not@?$ctype@_W@std@@$$FMBMPB_WFPB_W0@Z	; std::ctype<wchar_t>::do_scan_not
;	.proc.end.i4
; Function compile flags: /Ogtpy
	.text
	.comdat	any, ?do_tolower@?$ctype@_W@std@@$$FMBM_W_W@Z
.global	?do_tolower@?$ctype@_W@std@@$$FMBM_W_W@Z	; std::ctype<wchar_t>::do_tolower
?do_tolower@?$ctype@_W@std@@$$FMBM_W_W@Z:		; std::ctype<wchar_t>::do_tolower
;	.proc.def	D:I(II)

; Function Header:
; max stack depth = 3
; function size = 10 bytes
; local varsig tk = 0x0 
; Exception Information:
; 0 handlers, each consisting of filtered handlers

;	.formal.i4 0,"this$" SIG: Optional C Binding Modifier(token:0x68CDB11).Optional C Binding Modifier(token:0x68CDB13).ptr.Optional C Binding Modifier(token:0x68CDB16).valueType (token:0x68CDB18)
;	.formal.u2 1,"_Ch$" SIG: char

;	.proc.beg
; Line 2618
	ldarg.1				; _Ch$
	ldarg.0				; this$
	ldc.i.8		8		; i32 0x8
	add		
	call		?_Towlower@@$$FYM_W_WPBU_Ctypevec@@@Z
	ret		
 .end ?do_tolower@?$ctype@_W@std@@$$FMBM_W_W@Z		; std::ctype<wchar_t>::do_tolower
;	.proc.end.u2
	.bss
.local	$T62572,0
; Function compile flags: /Ogtpy
	.text
	.comdat	any, ?do_tolower@?$ctype@_W@std@@$$FMBMPB_WPA_WPB_W@Z
.global	?do_tolower@?$ctype@_W@std@@$$FMBMPB_WPA_WPB_W@Z ; std::ctype<wchar_t>::do_tolower
?do_tolower@?$ctype@_W@std@@$$FMBMPB_WPA_WPB_W@Z:	; std::ctype<wchar_t>::do_tolower
;	.proc.def	D:I(III)

; Function Header:
; max stack depth = 3
; function size = 29 bytes
; local varsig tk = 0x11000078 
; Exception Information:
; 0 handlers, each consisting of filtered handlers

;	.formal.i4 0,"this$" SIG: Optional C Binding Modifier(token:0x68CDB11).Optional C Binding Modifier(token:0x68CDB13).ptr.Optional C Binding Modifier(token:0x68CDB16).valueType (token:0x68CDB18)
;	.formal.i4 2,"_Last$" SIG: ptr.Optional C Binding Modifier(token:0x68E95FE).char
;	.formal.i4 1,"_First$" SIG: ptr.char
;	.local.i4 0,"$T62571" SIG: Optional C Binding Modifier(token:0x68CDB11).Optional C Binding Modifier(token:0x68CDB13).ptr.Optional C Binding Modifier(token:0x68CDB16).valueType (token:0x68CDB18)

;	.proc.beg
; Line 2625
	ldarg.1				; _First$
	ldarg.2				; _Last$
	beq.s		$LN1@do_tolower@2
; Line 2626
	ldarg.0				; this$
	ldc.i.8		8		; i32 0x8
	add		
	stloc.0				; $T62571
$LL3@do_tolower@2:
	ldarg.1				; _First$
	dup		
	ldind.u2	
	ldloc.0				; $T62571
	call		?_Towlower@@$$FYM_W_WPBU_Ctypevec@@@Z
	stind.i2	
; Line 2625
	ldarg.1				; _First$
	ldc.i.2		2		; i32 0x2
	add		
	starg.s		1		; _First$
	ldarg.1				; _First$
	ldarg.2				; _Last$
	bne.un.s	$LL3@do_tolower@2
$LN1@do_tolower@2:
; Line 2627
	ldarg.1				; _First$
	ret		
 .end ?do_tolower@?$ctype@_W@std@@$$FMBMPB_WPA_WPB_W@Z	; std::ctype<wchar_t>::do_tolower
;	.proc.end.i4
; Function compile flags: /Ogtpy
	.text
	.comdat	any, ?do_toupper@?$ctype@_W@std@@$$FMBM_W_W@Z
.global	?do_toupper@?$ctype@_W@std@@$$FMBM_W_W@Z	; std::ctype<wchar_t>::do_toupper
?do_toupper@?$ctype@_W@std@@$$FMBM_W_W@Z:		; std::ctype<wchar_t>::do_toupper
;	.proc.def	D:I(II)

; Function Header:
; max stack depth = 3
; function size = 10 bytes
; local varsig tk = 0x0 
; Exception Information:
; 0 handlers, each consisting of filtered handlers

;	.formal.i4 0,"this$" SIG: Optional C Binding Modifier(token:0x68CDB11).Optional C Binding Modifier(token:0x68CDB13).ptr.Optional C Binding Modifier(token:0x68CDB16).valueType (token:0x68CDB18)
;	.formal.u2 1,"_Ch$" SIG: char

;	.proc.beg
; Line 2632
	ldarg.1				; _Ch$
	ldarg.0				; this$
	ldc.i.8		8		; i32 0x8
	add		
	call		?_Towupper@@$$FYM_W_WPBU_Ctypevec@@@Z
	ret		
 .end ?do_toupper@?$ctype@_W@std@@$$FMBM_W_W@Z		; std::ctype<wchar_t>::do_toupper
;	.proc.end.u2
	.bss
.local	$T62580,0
; Function compile flags: /Ogtpy
	.text
	.comdat	any, ?do_toupper@?$ctype@_W@std@@$$FMBMPB_WPA_WPB_W@Z
.global	?do_toupper@?$ctype@_W@std@@$$FMBMPB_WPA_WPB_W@Z ; std::ctype<wchar_t>::do_toupper
?do_toupper@?$ctype@_W@std@@$$FMBMPB_WPA_WPB_W@Z:	; std::ctype<wchar_t>::do_toupper
;	.proc.def	D:I(III)

; Function Header:
; max stack depth = 3
; function size = 29 bytes
; local varsig tk = 0x11000078 
; Exception Information:
; 0 handlers, each consisting of filtered handlers

;	.formal.i4 0,"this$" SIG: Optional C Binding Modifier(token:0x68CDB11).Optional C Binding Modifier(token:0x68CDB13).ptr.Optional C Binding Modifier(token:0x68CDB16).valueType (token:0x68CDB18)
;	.formal.i4 2,"_Last$" SIG: ptr.Optional C Binding Modifier(token:0x68E95FE).char
;	.formal.i4 1,"_First$" SIG: ptr.char
;	.local.i4 0,"$T62579" SIG: Optional C Binding Modifier(token:0x68CDB11).Optional C Binding Modifier(token:0x68CDB13).ptr.Optional C Binding Modifier(token:0x68CDB16).valueType (token:0x68CDB18)

;	.proc.beg
; Line 2639
	ldarg.1				; _First$
	ldarg.2				; _Last$
	beq.s		$LN1@do_toupper@2
; Line 2640
	ldarg.0				; this$
	ldc.i.8		8		; i32 0x8
	add		
	stloc.0				; $T62579
$LL3@do_toupper@2:
	ldarg.1				; _First$
	dup		
	ldind.u2	
	ldloc.0				; $T62579
	call		?_Towupper@@$$FYM_W_WPBU_Ctypevec@@@Z
	stind.i2	
; Line 2639
	ldarg.1				; _First$
	ldc.i.2		2		; i32 0x2
	add		
	starg.s		1		; _First$
	ldarg.1				; _First$
	ldarg.2				; _Last$
	bne.un.s	$LL3@do_toupper@2
$LN1@do_toupper@2:
; Line 2641
	ldarg.1				; _First$
	ret		
 .end ?do_toupper@?$ctype@_W@std@@$$FMBMPB_WPA_WPB_W@Z	; std::ctype<wchar_t>::do_toupper
;	.proc.end.i4
	.bss
.local	$T62586,0
; Function compile flags: /Ogtpy
	.text
	.comdat	any, ?_Dowiden@?$ctype@_W@std@@$$FIBM_WD@Z
.global	?_Dowiden@?$ctype@_W@std@@$$FIBM_WD@Z		; std::ctype<wchar_t>::_Dowiden
?_Dowiden@?$ctype@_W@std@@$$FIBM_WD@Z:			; std::ctype<wchar_t>::_Dowiden
;	.proc.def	D:I(II)

; Function Header:
; max stack depth = 6
; function size = 33 bytes
; local varsig tk = 0x11000079 
; Exception Information:
; 0 handlers, each consisting of filtered handlers

;	.formal.i4 0,"this$" SIG: Optional C Binding Modifier(token:0x68CDB11).Optional C Binding Modifier(token:0x68CDB13).ptr.Optional C Binding Modifier(token:0x68CDB16).valueType (token:0x68CDB18)
;	.formal.i1 1,"_Byte$" SIG: Optional C Binding Modifier(token:0x68E42A9).i1
;	.local.u2 0,"$T62583" SIG: char
;	.local.u2 1,"_Wc$" SIG: char
;	.local.i4 2,"_Mbst$" SIG: i4

;	.proc.beg
; Line 2646
	ldc.i.0		0		; i32 0x0
	stloc.2				; _Mbst$
; Line 2649
	ldloca.s	1		; _Wc$
	ldarga.s	1		; _Byte$
	ldc.i.1		1		; u32 0x1
	ldloca.s	2		; _Mbst$
	ldarg.0				; this$
	ldc.i4.s	24		; i32 0x18
	add		
	call		?_Mbrtowc@@$$J0YMHPA_WPBDIPAHPBU_Cvtvec@@@Z
	ldc.i.0		0		; i32 0x0
	bge.s		$LN3@Dowiden
	ldc.i4		65535		; u16 0xffff
	stloc.0				; $T62583
	br.s		$LN4@Dowiden
$LN3@Dowiden:
	ldloc.1				; _Wc$
	stloc.0				; $T62583
$LN4@Dowiden:
	ldloc.0				; $T62583
	ret		
 .end ?_Dowiden@?$ctype@_W@std@@$$FIBM_WD@Z		; std::ctype<wchar_t>::_Dowiden
;	.proc.end.u2
	.bss
.local	$T62601,0
; Function compile flags: /Ogtpy
	.text
	.comdat	any, ?do_widen@?$ctype@_W@std@@$$FMBM_WD@Z
.global	?do_widen@?$ctype@_W@std@@$$FMBM_WD@Z		; std::ctype<wchar_t>::do_widen
?do_widen@?$ctype@_W@std@@$$FMBM_WD@Z:			; std::ctype<wchar_t>::do_widen
;	.proc.def	D:I(II)

; Function Header:
; max stack depth = 6
; function size = 35 bytes
; local varsig tk = 0x1100007A 
; Exception Information:
; 0 handlers, each consisting of filtered handlers

;	.formal.i4 0,"this$" SIG: Optional C Binding Modifier(token:0x68CDB11).Optional C Binding Modifier(token:0x68CDB13).ptr.Optional C Binding Modifier(token:0x68CDB16).valueType (token:0x68CDB18)
;	.formal.i1 1,"_Byte$" SIG: Optional C Binding Modifier(token:0x68E42A9).i1
;	.local.u2 0,"$T62594" SIG: char
;	.local.u2 1,"_Wc$62599" SIG: char
;	.local.i4 2,"_Mbst$62598" SIG: i4
;	.local.i1 3,"$T62600" SIG: Optional C Binding Modifier(token:0x68E42A9).i1

;	.proc.beg
; Line 2654
	ldarg.1				; _Byte$
	stloc.3				; $T62600
	ldc.i.0		0		; i32 0x0
	stloc.2				; _Mbst$62598
	ldloca.s	1		; _Wc$62599
	ldloca.s	3		; $T62600
	ldc.i.1		1		; u32 0x1
	ldloca.s	2		; _Mbst$62598
	ldarg.0				; this$
	ldc.i4.s	24		; i32 0x18
	add		
	call		?_Mbrtowc@@$$J0YMHPA_WPBDIPAHPBU_Cvtvec@@@Z
	ldc.i.0		0		; i32 0x0
	bge.s		$LN5@do_widen
	ldc.i4		65535		; u16 0xffff
	stloc.0				; $T62594
	br.s		$LN6@do_widen
$LN5@do_widen:
	ldloc.1				; _Wc$62599
	stloc.0				; $T62594
$LN6@do_widen:
	ldloc.0				; $T62594
	ret		
 .end ?do_widen@?$ctype@_W@std@@$$FMBM_WD@Z		; std::ctype<wchar_t>::do_widen
;	.proc.end.u2
	.bss
.local	$T62619,0
; Function compile flags: /Ogtpy
	.text
	.comdat	any, ?do_widen@?$ctype@_W@std@@$$FMBMPBDPBD0PA_W@Z
.global	?do_widen@?$ctype@_W@std@@$$FMBMPBDPBD0PA_W@Z	; std::ctype<wchar_t>::do_widen
?do_widen@?$ctype@_W@std@@$$FMBMPBDPBD0PA_W@Z:		; std::ctype<wchar_t>::do_widen
;	.proc.def	D:I(IIII)

; Function Header:
; max stack depth = 5
; function size = 60 bytes
; local varsig tk = 0x1100007B 
; Exception Information:
; 0 handlers, each consisting of filtered handlers

;	.formal.i4 3,"_Dest$" SIG: ptr.char
;	.formal.i4 0,"this$" SIG: Optional C Binding Modifier(token:0x68CDB11).Optional C Binding Modifier(token:0x68CDB13).ptr.Optional C Binding Modifier(token:0x68CDB16).valueType (token:0x68CDB18)
;	.formal.i4 2,"_Last$" SIG: ptr.Optional C Binding Modifier(token:0x68E807A).Optional C Binding Modifier(token:0x68E807C).i1
;	.formal.i4 1,"_First$" SIG: ptr.Optional C Binding Modifier(token:0x68E807A).Optional C Binding Modifier(token:0x68E807C).i1
;	.local.u2 0,"$T62609" SIG: char
;	.local.u2 1,"_Wc$62614" SIG: char
;	.local.i4 3,"_Mbst$62613" SIG: i4
;	.local.i1 4,"$T62615" SIG: Optional C Binding Modifier(token:0x68E42A9).i1
;	.local.i4 2,"$T62618" SIG: Optional C Binding Modifier(token:0x68CDB11).Optional C Binding Modifier(token:0x68CDB13).ptr.Optional C Binding Modifier(token:0x68CDB16).valueType (token:0x68CDB18)

;	.proc.beg
; Line 2662
	ldarg.1				; _First$
	ldarg.2				; _Last$
	beq.s		$LN1@do_widen@2
; Line 2663
	ldarg.0				; this$
	ldc.i4.s	24		; i32 0x18
	add		
	stloc.2				; $T62618
$LL3@do_widen@2:
	ldarg.1				; _First$
	ldind.i1	
	stloc.s		4		; $T62615
	ldc.i.0		0		; i32 0x0
	stloc.3				; _Mbst$62613
	ldloca.s	1		; _Wc$62614
	ldloca.s	4		; $T62615
	ldc.i.1		1		; u32 0x1
	ldloca.s	3		; _Mbst$62613
	ldloc.2				; $T62618
	call		?_Mbrtowc@@$$J0YMHPA_WPBDIPAHPBU_Cvtvec@@@Z
	ldc.i.0		0		; i32 0x0
	bge.s		$LN8@do_widen@2
	ldc.i4		65535		; u16 0xffff
	stloc.0				; $T62609
	br.s		$LN9@do_widen@2
$LN8@do_widen@2:
	ldloc.1				; _Wc$62614
	stloc.0				; $T62609
$LN9@do_widen@2:
	ldarg.3				; _Dest$
	ldloc.0				; $T62609
	stind.i2	
; Line 2662
	ldarg.1				; _First$
	ldc.i.1		1		; i32 0x1
	add		
	starg.s		1		; _First$
	ldarg.3				; _Dest$
	ldc.i.2		2		; i32 0x2
	add		
	starg.s		3		; _Dest$
	ldarg.1				; _First$
	ldarg.2				; _Last$
	bne.un.s	$LL3@do_widen@2
$LN1@do_widen@2:
; Line 2664
	ldarg.1				; _First$
	ret		
 .end ?do_widen@?$ctype@_W@std@@$$FMBMPBDPBD0PA_W@Z	; std::ctype<wchar_t>::do_widen
;	.proc.end.i4
	.bss
.local	$T62626,0
; Function compile flags: /Ogtpy
	.text
	.comdat	any, ?_Donarrow@?$ctype@_W@std@@$$FIBMD_WD@Z
.global	?_Donarrow@?$ctype@_W@std@@$$FIBMD_WD@Z		; std::ctype<wchar_t>::_Donarrow
?_Donarrow@?$ctype@_W@std@@$$FIBMD_WD@Z:		; std::ctype<wchar_t>::_Donarrow
;	.proc.def	D:I(III)

; Function Header:
; max stack depth = 5
; function size = 29 bytes
; local varsig tk = 0x1100007C 
; Exception Information:
; 0 handlers, each consisting of filtered handlers

;	.formal.i1 2,"_Dflt$" SIG: Optional C Binding Modifier(token:0x68E42A9).i1
;	.formal.i4 0,"this$" SIG: Optional C Binding Modifier(token:0x68CDB11).Optional C Binding Modifier(token:0x68CDB13).ptr.Optional C Binding Modifier(token:0x68CDB16).valueType (token:0x68CDB18)
;	.formal.u2 1,"_Ch$" SIG: char
;	.local.i1 0,"$T62623" SIG: i1
;	.local.mb5   1,"_Buf$" SIG: valueType (token:0x68CF03D)
;	.local.i4 2,"_Mbst$" SIG: i4

;	.proc.beg
; Line 2670
	ldc.i.0		0		; i32 0x0
	stloc.2				; _Mbst$
; Line 2672
	ldloca.s	1		; _Buf$
	ldarg.1				; _Ch$
	ldloca.s	2		; _Mbst$
	ldarg.0				; this$
	ldc.i4.s	24		; i32 0x18
	add		
	call		?_Wcrtomb@@$$FYMHPAD_WPAHPBU_Cvtvec@@@Z
	ldc.i.1		1		; i32 0x1
	beq.s		$LN3@Donarrow
	ldarg.2				; _Dflt$
	stloc.0				; $T62623
	br.s		$LN4@Donarrow
$LN3@Donarrow:
	ldloca.s	1		; _Buf$
	ldind.i1	
	stloc.0				; $T62623
$LN4@Donarrow:
	ldloc.0				; $T62623
	ret		
 .end ?_Donarrow@?$ctype@_W@std@@$$FIBMD_WD@Z		; std::ctype<wchar_t>::_Donarrow
;	.proc.end.i1
	.bss
.local	$T62642,0
; Function compile flags: /Ogtpy
	.text
	.comdat	any, ?do_narrow@?$ctype@_W@std@@$$FMBMD_WD@Z
.global	?do_narrow@?$ctype@_W@std@@$$FMBMD_WD@Z		; std::ctype<wchar_t>::do_narrow
?do_narrow@?$ctype@_W@std@@$$FMBMD_WD@Z:		; std::ctype<wchar_t>::do_narrow
;	.proc.def	D:I(III)

; Function Header:
; max stack depth = 5
; function size = 29 bytes
; local varsig tk = 0x1100007C 
; Exception Information:
; 0 handlers, each consisting of filtered handlers

;	.formal.i1 2,"_Dflt$" SIG: Optional C Binding Modifier(token:0x68E42A9).i1
;	.formal.i4 0,"this$" SIG: Optional C Binding Modifier(token:0x68CDB11).Optional C Binding Modifier(token:0x68CDB13).ptr.Optional C Binding Modifier(token:0x68CDB16).valueType (token:0x68CDB18)
;	.formal.u2 1,"_Ch$" SIG: char
;	.local.i1 0,"$T62636" SIG: i1
;	.local.mb5   1,"_Buf$62640" SIG: valueType (token:0x68CF03D)
;	.local.i4 2,"_Mbst$62641" SIG: i4

;	.proc.beg
; Line 2677
	ldc.i.0		0		; i32 0x0
	stloc.2				; _Mbst$62641
	ldloca.s	1		; _Buf$62640
	ldarg.1				; _Ch$
	ldloca.s	2		; _Mbst$62641
	ldarg.0				; this$
	ldc.i4.s	24		; i32 0x18
	add		
	call		?_Wcrtomb@@$$FYMHPAD_WPAHPBU_Cvtvec@@@Z
	ldc.i.1		1		; i32 0x1
	beq.s		$LN5@do_narrow
	ldarg.2				; _Dflt$
	stloc.0				; $T62636
	br.s		$LN6@do_narrow
$LN5@do_narrow:
	ldloca.s	1		; _Buf$62640
	ldind.i1	
	stloc.0				; $T62636
$LN6@do_narrow:
	ldloc.0				; $T62636
	ret		
 .end ?do_narrow@?$ctype@_W@std@@$$FMBMD_WD@Z		; std::ctype<wchar_t>::do_narrow
;	.proc.end.i1
	.bss
.local	$T62662,0
; Function compile flags: /Ogtpy
	.text
	.comdat	any, ?do_narrow@?$ctype@_W@std@@$$FMBMPB_WPB_W0DPAD@Z
.global	?do_narrow@?$ctype@_W@std@@$$FMBMPB_WPB_W0DPAD@Z ; std::ctype<wchar_t>::do_narrow
?do_narrow@?$ctype@_W@std@@$$FMBMPB_WPB_W0DPAD@Z:	; std::ctype<wchar_t>::do_narrow
;	.proc.def	D:I(IIIII)

; Function Header:
; max stack depth = 4
; function size = 58 bytes
; local varsig tk = 0x1100007D 
; Exception Information:
; 0 handlers, each consisting of filtered handlers

;	.formal.i4 4,"_Dest$" SIG: ptr.Optional C Binding Modifier(token:0x68E7F3A).i1
;	.formal.i1 3,"_Dflt$" SIG: Optional C Binding Modifier(token:0x68E42A9).i1
;	.formal.i4 0,"this$" SIG: Optional C Binding Modifier(token:0x68CDB11).Optional C Binding Modifier(token:0x68CDB13).ptr.Optional C Binding Modifier(token:0x68CDB16).valueType (token:0x68CDB18)
;	.formal.i4 2,"_Last$" SIG: ptr.Optional C Binding Modifier(token:0x68E95FE).char
;	.formal.i4 1,"_First$" SIG: ptr.Optional C Binding Modifier(token:0x68E95FE).char
;	.local.i1 0,"$T62655" SIG: i1
;	.local.mb5   3,"_Buf$62651" SIG: valueType (token:0x68CF03D)
;	.local.i4 4,"_Mbst$62652" SIG: i4
;	.local.u2 1,"$T62658" SIG: char
;	.local.i4 2,"$T62661" SIG: Optional C Binding Modifier(token:0x68CDB11).Optional C Binding Modifier(token:0x68CDB13).ptr.Optional C Binding Modifier(token:0x68CDB16).valueType (token:0x68CDB18)

;	.proc.beg
; Line 2685
	ldarg.1				; _First$
	ldarg.2				; _Last$
	beq.s		$LN1@do_narrow@2
; Line 2686
	ldarg.0				; this$
	ldc.i4.s	24		; i32 0x18
	add		
	stloc.2				; $T62661
$LL3@do_narrow@2:
	ldarg.1				; _First$
	ldind.u2	
	stloc.1				; $T62658
	ldc.i.0		0		; i32 0x0
	stloc.s		4		; _Mbst$62652
	ldloca.s	3		; _Buf$62651
	ldloc.1				; $T62658
	ldloca.s	4		; _Mbst$62652
	ldloc.2				; $T62661
	call		?_Wcrtomb@@$$FYMHPAD_WPAHPBU_Cvtvec@@@Z
	ldc.i.1		1		; i32 0x1
	beq.s		$LN8@do_narrow@2
	ldarg.3				; _Dflt$
	stloc.0				; $T62655
	br.s		$LN9@do_narrow@2
$LN8@do_narrow@2:
	ldloca.s	3		; _Buf$62651
	ldind.i1	
	stloc.0				; $T62655
$LN9@do_narrow@2:
	ldarg.s		4		; _Dest$
	ldloc.0				; $T62655
	stind.i1	
; Line 2685
	ldarg.1				; _First$
	ldc.i.2		2		; i32 0x2
	add		
	starg.s		1		; _First$
	ldarg.s		4		; _Dest$
	ldc.i.1		1		; i32 0x1
	add		
	starg.s		4		; _Dest$
	ldarg.1				; _First$
	ldarg.2				; _Last$
	bne.un.s	$LL3@do_narrow@2
$LN1@do_narrow@2:
; Line 2687
	ldarg.1				; _First$
	ret		
 .end ?do_narrow@?$ctype@_W@std@@$$FMBMPB_WPB_W0DPAD@Z	; std::ctype<wchar_t>::do_narrow
;	.proc.end.i4
	.bss
.local	$T62689,0
; Function compile flags: /Ogtpy
	.text
	.comdat	any, ??_E?$ctype@_W@std@@$$FMAMPAXI@Z
.global	??_E?$ctype@_W@std@@$$FMAMPAXI@Z		; std::ctype<wchar_t>::`vector deleting destructor'
??_E?$ctype@_W@std@@$$FMAMPAXI@Z:			; std::ctype<wchar_t>::`vector deleting destructor'
;	.proc.def	D:I(II)

; Function Header:
; max stack depth = 4
; function size = 112 bytes
; local varsig tk = 0x1100007E 
; Exception Information:
; 1 handlers, each consisting of filtered handlers

;	.formal.i4 0,"this$" SIG: Optional C Binding Modifier(token:0x68CD609).Optional C Binding Modifier(token:0x68CD60B).ptr.valueType (token:0x68CD60E)
;	.formal.u4 1,"__flags$" SIG: u4
;	.local.i4 0,"$T62685" SIG: Optional C Binding Modifier(token:0x68CD609).Optional C Binding Modifier(token:0x68CD60B).ptr.valueType (token:0x68CD60E)

;	.proc.beg
	ldarg.1				; __flags$
	ldc.i.2		2		; u32 0x2
	and		
	brfalse.s	$LN3@vector@6
	ldarg.0				; this$
	ldc.i.4		4		; i32 0x4
	sub		
	stloc.0				; $T62685
	ldarg.0				; this$
	ldc.i4.s	32		; u32 0x20
	ldloc.0				; $T62685
	ldind.i4	
	ldftn		??1?$ctype@_W@std@@$$FMAM@XZ
	call		??_M@$$FYMXPAXIHP6MX0@Z@Z
	ldarg.1				; __flags$
	ldc.i.1		1		; u32 0x1
	and		
	brfalse.s	$LN2@vector@6
	ldloc.0				; $T62685
	call		??_V@$$FYMXPAX@Z
$LN2@vector@6:
	ldloc.0				; $T62685
	ret		
$LN3@vector@6:
	ldarg.0				; this$
	ldsflda		??_7?$ctype@_W@std@@6B@
	ldc.i.4		4		; i32 0x4
	add		
	stind.i4	
$LN15@vector@6:
	ldarg.0				; this$
	ldc.i4.s	20		; i32 0x14
	add		
	ldind.i4	
	brtrue.s	$LN17@vector@6
	leave.s		$LN6@vector@6
$LN17@vector@6:
	ldarg.0				; this$
	ldc.i4.s	16		; i32 0x10
	add		
	ldind.i4	
	call		?free@@$$J0YAXPAX@Z
	leave.s		$LN6@vector@6
$LN16@vector@6:
	ldftn		??1ctype_base@std@@$$FUAM@XZ
	ldarg.0				; this$
	call		?___CxxCallUnwindDtor@@$$J0YMXP6MXPAX@Z0@Z
	endfinally	
$LN6@vector@6:
	ldarg.0				; this$
	ldsflda		??_7ctype_base@std@@6B@
	ldc.i.4		4		; i32 0x4
	add		
	stind.i4	
	ldarg.0				; this$
	ldsflda		??_7facet@locale@std@@6B@
	ldc.i.4		4		; i32 0x4
	add		
	stind.i4	
	ldarg.1				; __flags$
	ldc.i.1		1		; u32 0x1
	and		
	brfalse.s	$LN1@vector@6
	ldarg.0				; this$
	call		??3@$$FYMXPAX@Z
$LN1@vector@6:
	ldarg.0				; this$
	ret		
 .end ??_E?$ctype@_W@std@@$$FMAMPAXI@Z			; std::ctype<wchar_t>::`vector deleting destructor'
;	.proc.end.i4
.global	
	.bss
.local	$SigTok$$$A8?$ctype@G@std@@BM_NFG@Z,4
.local	,4
; Function compile flags: /Ogtpy
	.text
	.comdat	any, ?is@?$ctype@G@std@@$$FQBM_NFG@Z
.global	?is@?$ctype@G@std@@$$FQBM_NFG@Z			; std::ctype<unsigned short>::is
?is@?$ctype@G@std@@$$FQBM_NFG@Z:			; std::ctype<unsigned short>::is
;	.proc.def	D:I(III)

; Function Header:
; max stack depth = 5
; function size = 14 bytes
; local varsig tk = 0x0 
; Exception Information:
; 0 handlers, each consisting of filtered handlers

;	.formal.u2 2,"_Ch$" SIG: u2
;	.formal.i2 1,"_Maskval$" SIG: i2
;	.formal.i4 0,"this$" SIG: Optional C Binding Modifier(token:0x68CBEED).Optional C Binding Modifier(token:0x68CBEEF).ptr.Optional C Binding Modifier(token:0x68CBEF2).valueType (token:0x68CBEF4)

;	.proc.beg
; Line 2709
	ldarg.0				; this$
	ldarg.1				; _Maskval$
	ldarg.2				; _Ch$
	ldarg.0				; this$
	ldind.i4	
	ldc.i.8		8		; i32 0x8
	add		
	ldind.i4	
	calli		D:I(III)
	ret		
 .end ?is@?$ctype@G@std@@$$FQBM_NFG@Z			; std::ctype<unsigned short>::is
;	.proc.end.u1
.global	
	.bss
.local	,4
; Function compile flags: /Ogtpy
	.text
	.comdat	any, ??1?$ctype@G@std@@$$FMAM@XZ
.global	??1?$ctype@G@std@@$$FMAM@XZ			; std::ctype<unsigned short>::~ctype<unsigned short>
??1?$ctype@G@std@@$$FMAM@XZ:				; std::ctype<unsigned short>::~ctype<unsigned short>
;	.proc.def	D:V(I)

; Function Header:
; max stack depth = 3
; function size = 62 bytes
; local varsig tk = 0x0 
; Exception Information:
; 1 handlers, each consisting of filtered handlers

;	.formal.i4 0,"this$" SIG: Optional C Binding Modifier(token:0x68CB9FD).Optional C Binding Modifier(token:0x68CB9FF).ptr.valueType (token:0x68CBA02)

;	.proc.beg
; Line 2799
	ldarg.0				; this$
	ldsflda		??_7?$ctype@G@std@@6B@
	ldc.i.4		4		; i32 0x4
	add		
	stind.i4	
$LN10@ctype@2:
; Line 2800
	ldarg.0				; this$
	ldc.i4.s	20		; i32 0x14
	add		
	ldind.i4	
	brtrue.s	$LN12@ctype@2
	leave.s		$LN1@ctype@2
$LN12@ctype@2:
; Line 2801
	ldarg.0				; this$
	ldc.i4.s	16		; i32 0x10
	add		
	ldind.i4	
	call		?free@@$$J0YAXPAX@Z
	leave.s		$LN1@ctype@2
$LN11@ctype@2:
	ldftn		??1ctype_base@std@@$$FUAM@XZ
	ldarg.0				; this$
	call		?___CxxCallUnwindDtor@@$$J0YMXP6MXPAX@Z0@Z
	endfinally	
$LN1@ctype@2:
; Line 2802
	ldarg.0				; this$
	ldsflda		??_7ctype_base@std@@6B@
	ldc.i.4		4		; i32 0x4
	add		
	stind.i4	
	ldarg.0				; this$
	ldsflda		??_7facet@locale@std@@6B@
	ldc.i.4		4		; i32 0x4
	add		
	stind.i4	
	ret		
 .end ??1?$ctype@G@std@@$$FMAM@XZ			; std::ctype<unsigned short>::~ctype<unsigned short>
;	.proc.end.void
; Function compile flags: /Ogtpy
	.text
	.comdat	any, ?do_is@?$ctype@G@std@@$$FMBM_NFG@Z
.global	?do_is@?$ctype@G@std@@$$FMBM_NFG@Z		; std::ctype<unsigned short>::do_is
?do_is@?$ctype@G@std@@$$FMBM_NFG@Z:			; std::ctype<unsigned short>::do_is
;	.proc.def	D:I(III)

; Function Header:
; max stack depth = 3
; function size = 21 bytes
; local varsig tk = 0x0 
; Exception Information:
; 0 handlers, each consisting of filtered handlers

;	.formal.i2 1,"_Maskval$" SIG: i2
;	.formal.i4 0,"this$" SIG: Optional C Binding Modifier(token:0x68CBEED).Optional C Binding Modifier(token:0x68CBEEF).ptr.Optional C Binding Modifier(token:0x68CBEF2).valueType (token:0x68CBEF4)
;	.formal.u2 2,"_Ch$" SIG: u2

;	.proc.beg
; Line 2812
	ldarg.2				; _Ch$
	ldarg.0				; this$
	ldc.i.8		8		; i32 0x8
	add		
	call		?_Getwctype@@$$FYMF_WPBU_Ctypevec@@@Z
	ldarg.1				; _Maskval$
	and		
	conv.i2		
	ldc.i.0		0		; i16 0x0
	bne.un.s	$LN5@do_is@2
	ldc.i.0		0		; i32 0x0
	br.s		$LN6@do_is@2
$LN5@do_is@2:
	ldc.i.1		1		; i32 0x1
$LN6@do_is@2:
	conv.u1		
	ret		
 .end ?do_is@?$ctype@G@std@@$$FMBM_NFG@Z		; std::ctype<unsigned short>::do_is
;	.proc.end.u1
; Function compile flags: /Ogtpy
	.text
	.comdat	any, ?do_is@?$ctype@G@std@@$$FMBMPBGPBG0PAF@Z
.global	?do_is@?$ctype@G@std@@$$FMBMPBGPBG0PAF@Z	; std::ctype<unsigned short>::do_is
?do_is@?$ctype@G@std@@$$FMBMPBGPBG0PAF@Z:		; std::ctype<unsigned short>::do_is
;	.proc.def	D:I(IIII)

; Function Header:
; max stack depth = 5
; function size = 12 bytes
; local varsig tk = 0x0 
; Exception Information:
; 0 handlers, each consisting of filtered handlers

;	.formal.i4 0,"this$" SIG: Optional C Binding Modifier(token:0x68CBEED).Optional C Binding Modifier(token:0x68CBEEF).ptr.Optional C Binding Modifier(token:0x68CBEF2).valueType (token:0x68CBEF4)
;	.formal.i4 3,"_Dest$" SIG: ptr.i2
;	.formal.i4 2,"_Last$" SIG: ptr.Optional C Binding Modifier(token:0x68E47CE).u2
;	.formal.i4 1,"_First$" SIG: ptr.Optional C Binding Modifier(token:0x68E47CE).u2

;	.proc.beg
; Line 2821
	ldarg.1				; _First$
	ldarg.2				; _Last$
	ldarg.3				; _Dest$
	ldarg.0				; this$
	ldc.i.8		8		; i32 0x8
	add		
	call		?_Getwctypes@@$$FYMPB_WPB_W0PAFPBU_Ctypevec@@@Z
	ret		
 .end ?do_is@?$ctype@G@std@@$$FMBMPBGPBG0PAF@Z		; std::ctype<unsigned short>::do_is
;	.proc.end.i4
	.bss
.local	$T62727,0
; Function compile flags: /Ogtpy
	.text
	.comdat	any, ?do_scan_is@?$ctype@G@std@@$$FMBMPBGFPBG0@Z
.global	?do_scan_is@?$ctype@G@std@@$$FMBMPBGFPBG0@Z	; std::ctype<unsigned short>::do_scan_is
?do_scan_is@?$ctype@G@std@@$$FMBMPBGFPBG0@Z:		; std::ctype<unsigned short>::do_scan_is
;	.proc.def	D:I(IIII)

; Function Header:
; max stack depth = 5
; function size = 33 bytes
; local varsig tk = 0x11000081 
; Exception Information:
; 0 handlers, each consisting of filtered handlers

;	.formal.i2 1,"_Maskval$" SIG: i2
;	.formal.i4 0,"this$" SIG: Optional C Binding Modifier(token:0x68CBEED).Optional C Binding Modifier(token:0x68CBEEF).ptr.Optional C Binding Modifier(token:0x68CBEF2).valueType (token:0x68CBEF4)
;	.formal.i4 3,"_Last$" SIG: ptr.Optional C Binding Modifier(token:0x68E47CE).u2
;	.formal.i4 2,"_First$" SIG: ptr.Optional C Binding Modifier(token:0x68E47CE).u2
;	.local.u2 0,"$T62724" SIG: u2

;	.proc.beg
; Line 2828
	ldarg.2				; _First$
	ldarg.3				; _Last$
	beq.s		$LN1@do_scan_is@2
$LL3@do_scan_is@2:
	ldarg.2				; _First$
	ldind.u2	
	stloc.0				; $T62724
	ldarg.0				; this$
	ldarg.1				; _Maskval$
	ldloc.0				; $T62724
	ldarg.0				; this$
	ldind.i4	
	ldc.i.8		8		; i32 0x8
	add		
	ldind.i4	
	calli		D:I(III)
	brtrue.s	$LN1@do_scan_is@2
	ldarg.2				; _First$
	ldc.i.2		2		; i32 0x2
	add		
	starg.s		2		; _First$
	ldarg.2				; _First$
	ldarg.3				; _Last$
	bne.un.s	$LL3@do_scan_is@2
$LN1@do_scan_is@2:
; Line 2830
	ldarg.2				; _First$
	ret		
 .end ?do_scan_is@?$ctype@G@std@@$$FMBMPBGFPBG0@Z	; std::ctype<unsigned short>::do_scan_is
;	.proc.end.i4
	.bss
.local	$T62736,0
; Function compile flags: /Ogtpy
	.text
	.comdat	any, ?do_scan_not@?$ctype@G@std@@$$FMBMPBGFPBG0@Z
.global	?do_scan_not@?$ctype@G@std@@$$FMBMPBGFPBG0@Z	; std::ctype<unsigned short>::do_scan_not
?do_scan_not@?$ctype@G@std@@$$FMBMPBGFPBG0@Z:		; std::ctype<unsigned short>::do_scan_not
;	.proc.def	D:I(IIII)

; Function Header:
; max stack depth = 5
; function size = 33 bytes
; local varsig tk = 0x11000081 
; Exception Information:
; 0 handlers, each consisting of filtered handlers

;	.formal.i2 1,"_Maskval$" SIG: i2
;	.formal.i4 0,"this$" SIG: Optional C Binding Modifier(token:0x68CBEED).Optional C Binding Modifier(token:0x68CBEEF).ptr.Optional C Binding Modifier(token:0x68CBEF2).valueType (token:0x68CBEF4)
;	.formal.i4 3,"_Last$" SIG: ptr.Optional C Binding Modifier(token:0x68E47CE).u2
;	.formal.i4 2,"_First$" SIG: ptr.Optional C Binding Modifier(token:0x68E47CE).u2
;	.local.u2 0,"$T62733" SIG: u2

;	.proc.beg
; Line 2837
	ldarg.2				; _First$
	ldarg.3				; _Last$
	beq.s		$LN1@do_scan_no@2
$LL3@do_scan_no@2:
	ldarg.2				; _First$
	ldind.u2	
	stloc.0				; $T62733
	ldarg.0				; this$
	ldarg.1				; _Maskval$
	ldloc.0				; $T62733
	ldarg.0				; this$
	ldind.i4	
	ldc.i.8		8		; i32 0x8
	add		
	ldind.i4	
	calli		D:I(III)
	brfalse.s	$LN1@do_scan_no@2
	ldarg.2				; _First$
	ldc.i.2		2		; i32 0x2
	add		
	starg.s		2		; _First$
	ldarg.2				; _First$
	ldarg.3				; _Last$
	bne.un.s	$LL3@do_scan_no@2
$LN1@do_scan_no@2:
; Line 2839
	ldarg.2				; _First$
	ret		
 .end ?do_scan_not@?$ctype@G@std@@$$FMBMPBGFPBG0@Z	; std::ctype<unsigned short>::do_scan_not
;	.proc.end.i4
; Function compile flags: /Ogtpy
	.text
	.comdat	any, ?do_tolower@?$ctype@G@std@@$$FMBMGG@Z
.global	?do_tolower@?$ctype@G@std@@$$FMBMGG@Z		; std::ctype<unsigned short>::do_tolower
?do_tolower@?$ctype@G@std@@$$FMBMGG@Z:			; std::ctype<unsigned short>::do_tolower
;	.proc.def	D:I(II)

; Function Header:
; max stack depth = 3
; function size = 10 bytes
; local varsig tk = 0x0 
; Exception Information:
; 0 handlers, each consisting of filtered handlers

;	.formal.i4 0,"this$" SIG: Optional C Binding Modifier(token:0x68CBEED).Optional C Binding Modifier(token:0x68CBEEF).ptr.Optional C Binding Modifier(token:0x68CBEF2).valueType (token:0x68CBEF4)
;	.formal.u2 1,"_Ch$" SIG: u2

;	.proc.beg
; Line 2844
	ldarg.1				; _Ch$
	ldarg.0				; this$
	ldc.i.8		8		; i32 0x8
	add		
	call		?_Towlower@@$$FYM_W_WPBU_Ctypevec@@@Z
	ret		
 .end ?do_tolower@?$ctype@G@std@@$$FMBMGG@Z		; std::ctype<unsigned short>::do_tolower
;	.proc.end.u2
	.bss
.local	$T62744,0
; Function compile flags: /Ogtpy
	.text
	.comdat	any, ?do_tolower@?$ctype@G@std@@$$FMBMPBGPAGPBG@Z
.global	?do_tolower@?$ctype@G@std@@$$FMBMPBGPAGPBG@Z	; std::ctype<unsigned short>::do_tolower
?do_tolower@?$ctype@G@std@@$$FMBMPBGPAGPBG@Z:		; std::ctype<unsigned short>::do_tolower
;	.proc.def	D:I(III)

; Function Header:
; max stack depth = 3
; function size = 29 bytes
; local varsig tk = 0x11000082 
; Exception Information:
; 0 handlers, each consisting of filtered handlers

;	.formal.i4 0,"this$" SIG: Optional C Binding Modifier(token:0x68CBEED).Optional C Binding Modifier(token:0x68CBEEF).ptr.Optional C Binding Modifier(token:0x68CBEF2).valueType (token:0x68CBEF4)
;	.formal.i4 2,"_Last$" SIG: ptr.Optional C Binding Modifier(token:0x68E47CE).u2
;	.formal.i4 1,"_First$" SIG: ptr.u2
;	.local.i4 0,"$T62743" SIG: Optional C Binding Modifier(token:0x68CBEED).Optional C Binding Modifier(token:0x68CBEEF).ptr.Optional C Binding Modifier(token:0x68CBEF2).valueType (token:0x68CBEF4)

;	.proc.beg
; Line 2851
	ldarg.1				; _First$
	ldarg.2				; _Last$
	beq.s		$LN1@do_tolower@3
; Line 2852
	ldarg.0				; this$
	ldc.i.8		8		; i32 0x8
	add		
	stloc.0				; $T62743
$LL3@do_tolower@3:
	ldarg.1				; _First$
	dup		
	ldind.u2	
	ldloc.0				; $T62743
	call		?_Towlower@@$$FYM_W_WPBU_Ctypevec@@@Z
	stind.i2	
; Line 2851
	ldarg.1				; _First$
	ldc.i.2		2		; i32 0x2
	add		
	starg.s		1		; _First$
	ldarg.1				; _First$
	ldarg.2				; _Last$
	bne.un.s	$LL3@do_tolower@3
$LN1@do_tolower@3:
; Line 2853
	ldarg.1				; _First$
	ret		
 .end ?do_tolower@?$ctype@G@std@@$$FMBMPBGPAGPBG@Z	; std::ctype<unsigned short>::do_tolower
;	.proc.end.i4
; Function compile flags: /Ogtpy
	.text
	.comdat	any, ?do_toupper@?$ctype@G@std@@$$FMBMGG@Z
.global	?do_toupper@?$ctype@G@std@@$$FMBMGG@Z		; std::ctype<unsigned short>::do_toupper
?do_toupper@?$ctype@G@std@@$$FMBMGG@Z:			; std::ctype<unsigned short>::do_toupper
;	.proc.def	D:I(II)

; Function Header:
; max stack depth = 3
; function size = 10 bytes
; local varsig tk = 0x0 
; Exception Information:
; 0 handlers, each consisting of filtered handlers

;	.formal.i4 0,"this$" SIG: Optional C Binding Modifier(token:0x68CBEED).Optional C Binding Modifier(token:0x68CBEEF).ptr.Optional C Binding Modifier(token:0x68CBEF2).valueType (token:0x68CBEF4)
;	.formal.u2 1,"_Ch$" SIG: u2

;	.proc.beg
; Line 2858
	ldarg.1				; _Ch$
	ldarg.0				; this$
	ldc.i.8		8		; i32 0x8
	add		
	call		?_Towupper@@$$FYM_W_WPBU_Ctypevec@@@Z
	ret		
 .end ?do_toupper@?$ctype@G@std@@$$FMBMGG@Z		; std::ctype<unsigned short>::do_toupper
;	.proc.end.u2
	.bss
.local	$T62752,0
; Function compile flags: /Ogtpy
	.text
	.comdat	any, ?do_toupper@?$ctype@G@std@@$$FMBMPBGPAGPBG@Z
.global	?do_toupper@?$ctype@G@std@@$$FMBMPBGPAGPBG@Z	; std::ctype<unsigned short>::do_toupper
?do_toupper@?$ctype@G@std@@$$FMBMPBGPAGPBG@Z:		; std::ctype<unsigned short>::do_toupper
;	.proc.def	D:I(III)

; Function Header:
; max stack depth = 3
; function size = 29 bytes
; local varsig tk = 0x11000082 
; Exception Information:
; 0 handlers, each consisting of filtered handlers

;	.formal.i4 0,"this$" SIG: Optional C Binding Modifier(token:0x68CBEED).Optional C Binding Modifier(token:0x68CBEEF).ptr.Optional C Binding Modifier(token:0x68CBEF2).valueType (token:0x68CBEF4)
;	.formal.i4 2,"_Last$" SIG: ptr.Optional C Binding Modifier(token:0x68E47CE).u2
;	.formal.i4 1,"_First$" SIG: ptr.u2
;	.local.i4 0,"$T62751" SIG: Optional C Binding Modifier(token:0x68CBEED).Optional C Binding Modifier(token:0x68CBEEF).ptr.Optional C Binding Modifier(token:0x68CBEF2).valueType (token:0x68CBEF4)

;	.proc.beg
; Line 2865
	ldarg.1				; _First$
	ldarg.2				; _Last$
	beq.s		$LN1@do_toupper@3
; Line 2866
	ldarg.0				; this$
	ldc.i.8		8		; i32 0x8
	add		
	stloc.0				; $T62751
$LL3@do_toupper@3:
	ldarg.1				; _First$
	dup		
	ldind.u2	
	ldloc.0				; $T62751
	call		?_Towupper@@$$FYM_W_WPBU_Ctypevec@@@Z
	stind.i2	
; Line 2865
	ldarg.1				; _First$
	ldc.i.2		2		; i32 0x2
	add		
	starg.s		1		; _First$
	ldarg.1				; _First$
	ldarg.2				; _Last$
	bne.un.s	$LL3@do_toupper@3
$LN1@do_toupper@3:
; Line 2867
	ldarg.1				; _First$
	ret		
 .end ?do_toupper@?$ctype@G@std@@$$FMBMPBGPAGPBG@Z	; std::ctype<unsigned short>::do_toupper
;	.proc.end.i4
	.bss
.local	$T62758,0
; Function compile flags: /Ogtpy
	.text
	.comdat	any, ?_Dowiden@?$ctype@G@std@@$$FIBMGD@Z
.global	?_Dowiden@?$ctype@G@std@@$$FIBMGD@Z		; std::ctype<unsigned short>::_Dowiden
?_Dowiden@?$ctype@G@std@@$$FIBMGD@Z:			; std::ctype<unsigned short>::_Dowiden
;	.proc.def	D:I(II)

; Function Header:
; max stack depth = 6
; function size = 33 bytes
; local varsig tk = 0x11000083 
; Exception Information:
; 0 handlers, each consisting of filtered handlers

;	.formal.i4 0,"this$" SIG: Optional C Binding Modifier(token:0x68CBEED).Optional C Binding Modifier(token:0x68CBEEF).ptr.Optional C Binding Modifier(token:0x68CBEF2).valueType (token:0x68CBEF4)
;	.formal.i1 1,"_Byte$" SIG: Optional C Binding Modifier(token:0x68E42A9).i1
;	.local.u2 0,"$T62755" SIG: u2
;	.local.u2 1,"_Wc$" SIG: u2
;	.local.i4 2,"_Mbst$" SIG: i4

;	.proc.beg
; Line 2872
	ldc.i.0		0		; i32 0x0
	stloc.2				; _Mbst$
; Line 2875
	ldloca.s	1		; _Wc$
	ldarga.s	1		; _Byte$
	ldc.i.1		1		; u32 0x1
	ldloca.s	2		; _Mbst$
	ldarg.0				; this$
	ldc.i4.s	24		; i32 0x18
	add		
	call		?_Mbrtowc@@$$J0YMHPA_WPBDIPAHPBU_Cvtvec@@@Z
	ldc.i.0		0		; i32 0x0
	bge.s		$LN3@Dowiden@2
	ldc.i4		65535		; u16 0xffff
	stloc.0				; $T62755
	br.s		$LN4@Dowiden@2
$LN3@Dowiden@2:
	ldloc.1				; _Wc$
	stloc.0				; $T62755
$LN4@Dowiden@2:
	ldloc.0				; $T62755
	ret		
 .end ?_Dowiden@?$ctype@G@std@@$$FIBMGD@Z		; std::ctype<unsigned short>::_Dowiden
;	.proc.end.u2
	.bss
.local	$T62773,0
; Function compile flags: /Ogtpy
	.text
	.comdat	any, ?do_widen@?$ctype@G@std@@$$FMBMGD@Z
.global	?do_widen@?$ctype@G@std@@$$FMBMGD@Z		; std::ctype<unsigned short>::do_widen
?do_widen@?$ctype@G@std@@$$FMBMGD@Z:			; std::ctype<unsigned short>::do_widen
;	.proc.def	D:I(II)

; Function Header:
; max stack depth = 6
; function size = 35 bytes
; local varsig tk = 0x11000084 
; Exception Information:
; 0 handlers, each consisting of filtered handlers

;	.formal.i4 0,"this$" SIG: Optional C Binding Modifier(token:0x68CBEED).Optional C Binding Modifier(token:0x68CBEEF).ptr.Optional C Binding Modifier(token:0x68CBEF2).valueType (token:0x68CBEF4)
;	.formal.i1 1,"_Byte$" SIG: Optional C Binding Modifier(token:0x68E42A9).i1
;	.local.u2 0,"$T62766" SIG: u2
;	.local.u2 1,"_Wc$62771" SIG: u2
;	.local.i4 2,"_Mbst$62770" SIG: i4
;	.local.i1 3,"$T62772" SIG: Optional C Binding Modifier(token:0x68E42A9).i1

;	.proc.beg
; Line 2880
	ldarg.1				; _Byte$
	stloc.3				; $T62772
	ldc.i.0		0		; i32 0x0
	stloc.2				; _Mbst$62770
	ldloca.s	1		; _Wc$62771
	ldloca.s	3		; $T62772
	ldc.i.1		1		; u32 0x1
	ldloca.s	2		; _Mbst$62770
	ldarg.0				; this$
	ldc.i4.s	24		; i32 0x18
	add		
	call		?_Mbrtowc@@$$J0YMHPA_WPBDIPAHPBU_Cvtvec@@@Z
	ldc.i.0		0		; i32 0x0
	bge.s		$LN5@do_widen@3
	ldc.i4		65535		; u16 0xffff
	stloc.0				; $T62766
	br.s		$LN6@do_widen@3
$LN5@do_widen@3:
	ldloc.1				; _Wc$62771
	stloc.0				; $T62766
$LN6@do_widen@3:
	ldloc.0				; $T62766
	ret		
 .end ?do_widen@?$ctype@G@std@@$$FMBMGD@Z		; std::ctype<unsigned short>::do_widen
;	.proc.end.u2
	.bss
.local	$T62791,0
; Function compile flags: /Ogtpy
	.text
	.comdat	any, ?do_widen@?$ctype@G@std@@$$FMBMPBDPBD0PAG@Z
.global	?do_widen@?$ctype@G@std@@$$FMBMPBDPBD0PAG@Z	; std::ctype<unsigned short>::do_widen
?do_widen@?$ctype@G@std@@$$FMBMPBDPBD0PAG@Z:		; std::ctype<unsigned short>::do_widen
;	.proc.def	D:I(IIII)

; Function Header:
; max stack depth = 5
; function size = 60 bytes
; local varsig tk = 0x11000085 
; Exception Information:
; 0 handlers, each consisting of filtered handlers

;	.formal.i4 3,"_Dest$" SIG: ptr.u2
;	.formal.i4 0,"this$" SIG: Optional C Binding Modifier(token:0x68CBEED).Optional C Binding Modifier(token:0x68CBEEF).ptr.Optional C Binding Modifier(token:0x68CBEF2).valueType (token:0x68CBEF4)
;	.formal.i4 2,"_Last$" SIG: ptr.Optional C Binding Modifier(token:0x68E807A).Optional C Binding Modifier(token:0x68E807C).i1
;	.formal.i4 1,"_First$" SIG: ptr.Optional C Binding Modifier(token:0x68E807A).Optional C Binding Modifier(token:0x68E807C).i1
;	.local.u2 0,"$T62781" SIG: u2
;	.local.u2 1,"_Wc$62786" SIG: u2
;	.local.i4 3,"_Mbst$62785" SIG: i4
;	.local.i1 4,"$T62787" SIG: Optional C Binding Modifier(token:0x68E42A9).i1
;	.local.i4 2,"$T62790" SIG: Optional C Binding Modifier(token:0x68CBEED).Optional C Binding Modifier(token:0x68CBEEF).ptr.Optional C Binding Modifier(token:0x68CBEF2).valueType (token:0x68CBEF4)

;	.proc.beg
; Line 2888
	ldarg.1				; _First$
	ldarg.2				; _Last$
	beq.s		$LN1@do_widen@4
; Line 2889
	ldarg.0				; this$
	ldc.i4.s	24		; i32 0x18
	add		
	stloc.2				; $T62790
$LL3@do_widen@4:
	ldarg.1				; _First$
	ldind.i1	
	stloc.s		4		; $T62787
	ldc.i.0		0		; i32 0x0
	stloc.3				; _Mbst$62785
	ldloca.s	1		; _Wc$62786
	ldloca.s	4		; $T62787
	ldc.i.1		1		; u32 0x1
	ldloca.s	3		; _Mbst$62785
	ldloc.2				; $T62790
	call		?_Mbrtowc@@$$J0YMHPA_WPBDIPAHPBU_Cvtvec@@@Z
	ldc.i.0		0		; i32 0x0
	bge.s		$LN8@do_widen@4
	ldc.i4		65535		; u16 0xffff
	stloc.0				; $T62781
	br.s		$LN9@do_widen@4
$LN8@do_widen@4:
	ldloc.1				; _Wc$62786
	stloc.0				; $T62781
$LN9@do_widen@4:
	ldarg.3				; _Dest$
	ldloc.0				; $T62781
	stind.i2	
; Line 2888
	ldarg.1				; _First$
	ldc.i.1		1		; i32 0x1
	add		
	starg.s		1		; _First$
	ldarg.3				; _Dest$
	ldc.i.2		2		; i32 0x2
	add		
	starg.s		3		; _Dest$
	ldarg.1				; _First$
	ldarg.2				; _Last$
	bne.un.s	$LL3@do_widen@4
$LN1@do_widen@4:
; Line 2890
	ldarg.1				; _First$
	ret		
 .end ?do_widen@?$ctype@G@std@@$$FMBMPBDPBD0PAG@Z	; std::ctype<unsigned short>::do_widen
;	.proc.end.i4
	.bss
.local	$T62798,0
; Function compile flags: /Ogtpy
	.text
	.comdat	any, ?_Donarrow@?$ctype@G@std@@$$FIBMDGD@Z
.global	?_Donarrow@?$ctype@G@std@@$$FIBMDGD@Z		; std::ctype<unsigned short>::_Donarrow
?_Donarrow@?$ctype@G@std@@$$FIBMDGD@Z:			; std::ctype<unsigned short>::_Donarrow
;	.proc.def	D:I(III)

; Function Header:
; max stack depth = 5
; function size = 29 bytes
; local varsig tk = 0x1100007C 
; Exception Information:
; 0 handlers, each consisting of filtered handlers

;	.formal.i1 2,"_Dflt$" SIG: Optional C Binding Modifier(token:0x68E42A9).i1
;	.formal.i4 0,"this$" SIG: Optional C Binding Modifier(token:0x68CBEED).Optional C Binding Modifier(token:0x68CBEEF).ptr.Optional C Binding Modifier(token:0x68CBEF2).valueType (token:0x68CBEF4)
;	.formal.u2 1,"_Ch$" SIG: u2
;	.local.i1 0,"$T62795" SIG: i1
;	.local.mb5   1,"_Buf$" SIG: valueType (token:0x68CF03D)
;	.local.i4 2,"_Mbst$" SIG: i4

;	.proc.beg
; Line 2896
	ldc.i.0		0		; i32 0x0
	stloc.2				; _Mbst$
; Line 2898
	ldloca.s	1		; _Buf$
	ldarg.1				; _Ch$
	ldloca.s	2		; _Mbst$
	ldarg.0				; this$
	ldc.i4.s	24		; i32 0x18
	add		
	call		?_Wcrtomb@@$$FYMHPAD_WPAHPBU_Cvtvec@@@Z
	ldc.i.1		1		; i32 0x1
	beq.s		$LN3@Donarrow@2
	ldarg.2				; _Dflt$
	stloc.0				; $T62795
	br.s		$LN4@Donarrow@2
$LN3@Donarrow@2:
	ldloca.s	1		; _Buf$
	ldind.i1	
	stloc.0				; $T62795
$LN4@Donarrow@2:
	ldloc.0				; $T62795
	ret		
 .end ?_Donarrow@?$ctype@G@std@@$$FIBMDGD@Z		; std::ctype<unsigned short>::_Donarrow
;	.proc.end.i1
	.bss
.local	$T62814,0
; Function compile flags: /Ogtpy
	.text
	.comdat	any, ?do_narrow@?$ctype@G@std@@$$FMBMDGD@Z
.global	?do_narrow@?$ctype@G@std@@$$FMBMDGD@Z		; std::ctype<unsigned short>::do_narrow
?do_narrow@?$ctype@G@std@@$$FMBMDGD@Z:			; std::ctype<unsigned short>::do_narrow
;	.proc.def	D:I(III)

; Function Header:
; max stack depth = 5
; function size = 29 bytes
; local varsig tk = 0x1100007C 
; Exception Information:
; 0 handlers, each consisting of filtered handlers

;	.formal.i1 2,"_Dflt$" SIG: Optional C Binding Modifier(token:0x68E42A9).i1
;	.formal.i4 0,"this$" SIG: Optional C Binding Modifier(token:0x68CBEED).Optional C Binding Modifier(token:0x68CBEEF).ptr.Optional C Binding Modifier(token:0x68CBEF2).valueType (token:0x68CBEF4)
;	.formal.u2 1,"_Ch$" SIG: u2
;	.local.i1 0,"$T62808" SIG: i1
;	.local.mb5   1,"_Buf$62812" SIG: valueType (token:0x68CF03D)
;	.local.i4 2,"_Mbst$62813" SIG: i4

;	.proc.beg
; Line 2903
	ldc.i.0		0		; i32 0x0
	stloc.2				; _Mbst$62813
	ldloca.s	1		; _Buf$62812
	ldarg.1				; _Ch$
	ldloca.s	2		; _Mbst$62813
	ldarg.0				; this$
	ldc.i4.s	24		; i32 0x18
	add		
	call		?_Wcrtomb@@$$FYMHPAD_WPAHPBU_Cvtvec@@@Z
	ldc.i.1		1		; i32 0x1
	beq.s		$LN5@do_narrow@3
	ldarg.2				; _Dflt$
	stloc.0				; $T62808
	br.s		$LN6@do_narrow@3
$LN5@do_narrow@3:
	ldloca.s	1		; _Buf$62812
	ldind.i1	
	stloc.0				; $T62808
$LN6@do_narrow@3:
	ldloc.0				; $T62808
	ret		
 .end ?do_narrow@?$ctype@G@std@@$$FMBMDGD@Z		; std::ctype<unsigned short>::do_narrow
;	.proc.end.i1
	.bss
.local	$T62834,0
; Function compile flags: /Ogtpy
	.text
	.comdat	any, ?do_narrow@?$ctype@G@std@@$$FMBMPBGPBG0DPAD@Z
.global	?do_narrow@?$ctype@G@std@@$$FMBMPBGPBG0DPAD@Z	; std::ctype<unsigned short>::do_narrow
?do_narrow@?$ctype@G@std@@$$FMBMPBGPBG0DPAD@Z:		; std::ctype<unsigned short>::do_narrow
;	.proc.def	D:I(IIIII)

; Function Header:
; max stack depth = 4
; function size = 58 bytes
; local varsig tk = 0x11000086 
; Exception Information:
; 0 handlers, each consisting of filtered handlers

;	.formal.i4 4,"_Dest$" SIG: ptr.Optional C Binding Modifier(token:0x68E7F3A).i1
;	.formal.i1 3,"_Dflt$" SIG: Optional C Binding Modifier(token:0x68E42A9).i1
;	.formal.i4 0,"this$" SIG: Optional C Binding Modifier(token:0x68CBEED).Optional C Binding Modifier(token:0x68CBEEF).ptr.Optional C Binding Modifier(token:0x68CBEF2).valueType (token:0x68CBEF4)
;	.formal.i4 2,"_Last$" SIG: ptr.Optional C Binding Modifier(token:0x68E47CE).u2
;	.formal.i4 1,"_First$" SIG: ptr.Optional C Binding Modifier(token:0x68E47CE).u2
;	.local.i1 0,"$T62824" SIG: i1
;	.local.mb5   3,"_Buf$62828" SIG: valueType (token:0x68CF03D)
;	.local.i4 4,"_Mbst$62829" SIG: i4
;	.local.u2 1,"$T62830" SIG: u2
;	.local.i4 2,"$T62833" SIG: Optional C Binding Modifier(token:0x68CBEED).Optional C Binding Modifier(token:0x68CBEEF).ptr.Optional C Binding Modifier(token:0x68CBEF2).valueType (token:0x68CBEF4)

;	.proc.beg
; Line 2911
	ldarg.1				; _First$
	ldarg.2				; _Last$
	beq.s		$LN1@do_narrow@4
; Line 2912
	ldarg.0				; this$
	ldc.i4.s	24		; i32 0x18
	add		
	stloc.2				; $T62833
$LL3@do_narrow@4:
	ldarg.1				; _First$
	ldind.u2	
	stloc.1				; $T62830
	ldc.i.0		0		; i32 0x0
	stloc.s		4		; _Mbst$62829
	ldloca.s	3		; _Buf$62828
	ldloc.1				; $T62830
	ldloca.s	4		; _Mbst$62829
	ldloc.2				; $T62833
	call		?_Wcrtomb@@$$FYMHPAD_WPAHPBU_Cvtvec@@@Z
	ldc.i.1		1		; i32 0x1
	beq.s		$LN8@do_narrow@4
	ldarg.3				; _Dflt$
	stloc.0				; $T62824
	br.s		$LN9@do_narrow@4
$LN8@do_narrow@4:
	ldloca.s	3		; _Buf$62828
	ldind.i1	
	stloc.0				; $T62824
$LN9@do_narrow@4:
	ldarg.s		4		; _Dest$
	ldloc.0				; $T62824
	stind.i1	
; Line 2911
	ldarg.1				; _First$
	ldc.i.2		2		; i32 0x2
	add		
	starg.s		1		; _First$
	ldarg.s		4		; _Dest$
	ldc.i.1		1		; i32 0x1
	add		
	starg.s		4		; _Dest$
	ldarg.1				; _First$
	ldarg.2				; _Last$
	bne.un.s	$LL3@do_narrow@4
$LN1@do_narrow@4:
; Line 2913
	ldarg.1				; _First$
	ret		
 .end ?do_narrow@?$ctype@G@std@@$$FMBMPBGPBG0DPAD@Z	; std::ctype<unsigned short>::do_narrow
;	.proc.end.i4
	.bss
.local	$T62861,0
; Function compile flags: /Ogtpy
	.text
	.comdat	any, ??_E?$ctype@G@std@@$$FMAMPAXI@Z
.global	??_E?$ctype@G@std@@$$FMAMPAXI@Z			; std::ctype<unsigned short>::`vector deleting destructor'
??_E?$ctype@G@std@@$$FMAMPAXI@Z:			; std::ctype<unsigned short>::`vector deleting destructor'
;	.proc.def	D:I(II)

; Function Header:
; max stack depth = 4
; function size = 112 bytes
; local varsig tk = 0x11000087 
; Exception Information:
; 1 handlers, each consisting of filtered handlers

;	.formal.i4 0,"this$" SIG: Optional C Binding Modifier(token:0x68CB9FD).Optional C Binding Modifier(token:0x68CB9FF).ptr.valueType (token:0x68CBA02)
;	.formal.u4 1,"__flags$" SIG: u4
;	.local.i4 0,"$T62857" SIG: Optional C Binding Modifier(token:0x68CB9FD).Optional C Binding Modifier(token:0x68CB9FF).ptr.valueType (token:0x68CBA02)

;	.proc.beg
	ldarg.1				; __flags$
	ldc.i.2		2		; u32 0x2
	and		
	brfalse.s	$LN3@vector@7
	ldarg.0				; this$
	ldc.i.4		4		; i32 0x4
	sub		
	stloc.0				; $T62857
	ldarg.0				; this$
	ldc.i4.s	32		; u32 0x20
	ldloc.0				; $T62857
	ldind.i4	
	ldftn		??1?$ctype@G@std@@$$FMAM@XZ
	call		??_M@$$FYMXPAXIHP6MX0@Z@Z
	ldarg.1				; __flags$
	ldc.i.1		1		; u32 0x1
	and		
	brfalse.s	$LN2@vector@7
	ldloc.0				; $T62857
	call		??_V@$$FYMXPAX@Z
$LN2@vector@7:
	ldloc.0				; $T62857
	ret		
$LN3@vector@7:
	ldarg.0				; this$
	ldsflda		??_7?$ctype@G@std@@6B@
	ldc.i.4		4		; i32 0x4
	add		
	stind.i4	
$LN15@vector@7:
	ldarg.0				; this$
	ldc.i4.s	20		; i32 0x14
	add		
	ldind.i4	
	brtrue.s	$LN17@vector@7
	leave.s		$LN6@vector@7
$LN17@vector@7:
	ldarg.0				; this$
	ldc.i4.s	16		; i32 0x10
	add		
	ldind.i4	
	call		?free@@$$J0YAXPAX@Z
	leave.s		$LN6@vector@7
$LN16@vector@7:
	ldftn		??1ctype_base@std@@$$FUAM@XZ
	ldarg.0				; this$
	call		?___CxxCallUnwindDtor@@$$J0YMXP6MXPAX@Z0@Z
	endfinally	
$LN6@vector@7:
	ldarg.0				; this$
	ldsflda		??_7ctype_base@std@@6B@
	ldc.i.4		4		; i32 0x4
	add		
	stind.i4	
	ldarg.0				; this$
	ldsflda		??_7facet@locale@std@@6B@
	ldc.i.4		4		; i32 0x4
	add		
	stind.i4	
	ldarg.1				; __flags$
	ldc.i.1		1		; u32 0x1
	and		
	brfalse.s	$LN1@vector@7
	ldarg.0				; this$
	call		??3@$$FYMXPAX@Z
$LN1@vector@7:
	ldarg.0				; this$
	ret		
 .end ??_E?$ctype@G@std@@$$FMAMPAXI@Z			; std::ctype<unsigned short>::`vector deleting destructor'
;	.proc.end.i4
.global	
	.bss
.local	,4
; Function compile flags: /Ogtpy
	.text
	.comdat	any, ??1error_category@std@@$$FUAM@XZ
.global	??1error_category@std@@$$FUAM@XZ		; std::error_category::~error_category
??1error_category@std@@$$FUAM@XZ:			; std::error_category::~error_category
;	.proc.def	D:V(I)

; Function Header:
; max stack depth = 3
; function size = 10 bytes
; local varsig tk = 0x0 
; Exception Information:
; 0 handlers, each consisting of filtered handlers

;	.formal.i4 0,"this$" SIG: Optional C Binding Modifier(token:0x68CB1D1).Optional C Binding Modifier(token:0x68CB1D3).ptr.valueType (token:0x68CB1D6)

;	.proc.beg
; File c:\program files (x86)\microsoft visual studio 10.0\vc\include\system_error
; Line 154
	ldarg.0				; this$
	ldsflda		??_7error_category@std@@6B@
	ldc.i.4		4		; i32 0x4
	add		
	stind.i4	
; Line 155
	ret		
 .end ??1error_category@std@@$$FUAM@XZ			; std::error_category::~error_category
;	.proc.end.void
.global	
.global	
	.bss
.local	,4
.local	,4
; Function compile flags: /Ogtpy
	.text
	.comdat	any, ??8error_category@std@@$$FQBM_NABV01@@Z
.global	??8error_category@std@@$$FQBM_NABV01@@Z		; std::error_category::operator==
??8error_category@std@@$$FQBM_NABV01@@Z:		; std::error_category::operator==
;	.proc.def	D:I(II)

; Function Header:
; max stack depth = 2
; function size = 6 bytes
; local varsig tk = 0x0 
; Exception Information:
; 0 handlers, each consisting of filtered handlers

;	.formal.i4 1,"_Right$" SIG: Optional C Binding Modifier(token:0x68CB13D).ptr.Optional C Binding Modifier(token:0x68CB141).valueType (token:0x68CB143)
;	.formal.i4 0,"this$" SIG: Optional C Binding Modifier(token:0x68CB035).Optional C Binding Modifier(token:0x68CB037).ptr.Optional C Binding Modifier(token:0x68CB03A).valueType (token:0x68CB03C)

;	.proc.beg
; Line 171
	ldarg.0				; this$
	ldarg.1				; _Right$
	ceq		
	conv.u1		
	ret		
 .end ??8error_category@std@@$$FQBM_NABV01@@Z		; std::error_category::operator==
;	.proc.end.u1
	.bss
.local	$T62877,0
; Function compile flags: /Ogtpy
	.text
	.comdat	any, ??_Eerror_category@std@@$$FUAMPAXI@Z
.global	??_Eerror_category@std@@$$FUAMPAXI@Z		; std::error_category::`vector deleting destructor'
??_Eerror_category@std@@$$FUAMPAXI@Z:			; std::error_category::`vector deleting destructor'
;	.proc.def	D:I(II)

; Function Header:
; max stack depth = 4
; function size = 59 bytes
; local varsig tk = 0x1100008B 
; Exception Information:
; 0 handlers, each consisting of filtered handlers

;	.formal.i4 0,"this$" SIG: Optional C Binding Modifier(token:0x68CB1D1).Optional C Binding Modifier(token:0x68CB1D3).ptr.valueType (token:0x68CB1D6)
;	.formal.u4 1,"__flags$" SIG: u4
;	.local.i4 0,"$T62876" SIG: Optional C Binding Modifier(token:0x68CB1D1).Optional C Binding Modifier(token:0x68CB1D3).ptr.valueType (token:0x68CB1D6)

;	.proc.beg
	ldarg.1				; __flags$
	ldc.i.2		2		; u32 0x2
	and		
	brfalse.s	$LN3@vector@8
	ldarg.0				; this$
	ldc.i.4		4		; i32 0x4
	sub		
	stloc.0				; $T62876
	ldarg.0				; this$
	ldc.i.4		4		; u32 0x4
	ldloc.0				; $T62876
	ldind.i4	
	ldftn		??1error_category@std@@$$FUAM@XZ
	call		??_M@$$FYMXPAXIHP6MX0@Z@Z
	ldarg.1				; __flags$
	ldc.i.1		1		; u32 0x1
	and		
	brfalse.s	$LN2@vector@8
	ldloc.0				; $T62876
	call		??_V@$$FYMXPAX@Z
$LN2@vector@8:
	ldloc.0				; $T62876
	ret		
$LN3@vector@8:
	ldarg.0				; this$
	ldsflda		??_7error_category@std@@6B@
	ldc.i.4		4		; i32 0x4
	add		
	stind.i4	
	ldarg.1				; __flags$
	ldc.i.1		1		; u32 0x1
	and		
	brfalse.s	$LN1@vector@8
	ldarg.0				; this$
	call		??3@$$FYMXPAX@Z
$LN1@vector@8:
	ldarg.0				; this$
	ret		
 .end ??_Eerror_category@std@@$$FUAMPAXI@Z		; std::error_category::`vector deleting destructor'
;	.proc.end.i4
.global	
	.bss
.local	,4
; Function compile flags: /Ogtpy
	.text
	.comdat	any, ?value@error_code@std@@$$FQBMHXZ
.global	?value@error_code@std@@$$FQBMHXZ		; std::error_code::value
?value@error_code@std@@$$FQBMHXZ:			; std::error_code::value
;	.proc.def	D:I(I)

; Function Header:
; max stack depth = 1
; function size = 3 bytes
; local varsig tk = 0x0 
; Exception Information:
; 0 handlers, each consisting of filtered handlers

;	.formal.i4 0,"this$" SIG: Optional C Binding Modifier(token:0x68CAE39).Optional C Binding Modifier(token:0x68CAE3B).ptr.Optional C Binding Modifier(token:0x68CAE3E).valueType (token:0x68CAE40)

;	.proc.beg
; Line 238
	ldarg.0				; this$
	ldind.i4	
	ret		
 .end ?value@error_code@std@@$$FQBMHXZ			; std::error_code::value
;	.proc.end.i4
; Function compile flags: /Ogtpy
	.text
	.comdat	any, ?category@error_code@std@@$$FQBMABVerror_category@2@XZ
.global	?category@error_code@std@@$$FQBMABVerror_category@2@XZ ; std::error_code::category
?category@error_code@std@@$$FQBMABVerror_category@2@XZ:	; std::error_code::category
;	.proc.def	D:I(I)

; Function Header:
; max stack depth = 2
; function size = 5 bytes
; local varsig tk = 0x0 
; Exception Information:
; 0 handlers, each consisting of filtered handlers

;	.formal.i4 0,"this$" SIG: Optional C Binding Modifier(token:0x68CAE39).Optional C Binding Modifier(token:0x68CAE3B).ptr.Optional C Binding Modifier(token:0x68CAE3E).valueType (token:0x68CAE40)

;	.proc.beg
; Line 243
	ldarg.0				; this$
	ldc.i.4		4		; i32 0x4
	add		
	ldind.i4	
	ret		
 .end ?category@error_code@std@@$$FQBMABVerror_category@2@XZ ; std::error_code::category
;	.proc.end.i4
.global	
	.bss
.local	,4
; Function compile flags: /Ogtpy
	.text
	.comdat	any, ??0error_condition@std@@$$FQAM@HABVerror_category@1@@Z
.global	??0error_condition@std@@$$FQAM@HABVerror_category@1@@Z ; std::error_condition::error_condition
??0error_condition@std@@$$FQAM@HABVerror_category@1@@Z:	; std::error_condition::error_condition
;	.proc.def	D:I(III)

; Function Header:
; max stack depth = 2
; function size = 10 bytes
; local varsig tk = 0x0 
; Exception Information:
; 0 handlers, each consisting of filtered handlers

;	.formal.i4 2,"_Cat$" SIG: Optional C Binding Modifier(token:0x68CB13D).ptr.Optional C Binding Modifier(token:0x68CB141).valueType (token:0x68CB143)
;	.formal.i4 1,"_Val$" SIG: i4
;	.formal.i4 0,"this$" SIG: Optional C Binding Modifier(token:0x68CA97D).Optional C Binding Modifier(token:0x68CA97F).ptr.valueType (token:0x68CA982)

;	.proc.beg
; Line 300
	ldarg.0				; this$
	ldarg.1				; _Val$
	stind.i4	
	ldarg.0				; this$
	ldc.i.4		4		; i32 0x4
	add		
	ldarg.2				; _Cat$
	stind.i4	
; Line 301
	ldarg.0				; this$
	ret		
 .end ??0error_condition@std@@$$FQAM@HABVerror_category@1@@Z ; std::error_condition::error_condition
;	.proc.end.i4
.global	
	.bss
.local	,4
; Function compile flags: /Ogtpy
	.text
	.comdat	any, ?value@error_condition@std@@$$FQBMHXZ
.global	?value@error_condition@std@@$$FQBMHXZ		; std::error_condition::value
?value@error_condition@std@@$$FQBMHXZ:			; std::error_condition::value
;	.proc.def	D:I(I)

; Function Header:
; max stack depth = 1
; function size = 3 bytes
; local varsig tk = 0x0 
; Exception Information:
; 0 handlers, each consisting of filtered handlers

;	.formal.i4 0,"this$" SIG: Optional C Binding Modifier(token:0x68CA8E5).Optional C Binding Modifier(token:0x68CA8E7).ptr.Optional C Binding Modifier(token:0x68CA8EA).valueType (token:0x68CA8EC)

;	.proc.beg
; Line 334
	ldarg.0				; this$
	ldind.i4	
	ret		
 .end ?value@error_condition@std@@$$FQBMHXZ		; std::error_condition::value
;	.proc.end.i4
; Function compile flags: /Ogtpy
	.text
	.comdat	any, ?category@error_condition@std@@$$FQBMABVerror_category@2@XZ
.global	?category@error_condition@std@@$$FQBMABVerror_category@2@XZ ; std::error_condition::category
?category@error_condition@std@@$$FQBMABVerror_category@2@XZ: ; std::error_condition::category
;	.proc.def	D:I(I)

; Function Header:
; max stack depth = 2
; function size = 5 bytes
; local varsig tk = 0x0 
; Exception Information:
; 0 handlers, each consisting of filtered handlers

;	.formal.i4 0,"this$" SIG: Optional C Binding Modifier(token:0x68CA8E5).Optional C Binding Modifier(token:0x68CA8E7).ptr.Optional C Binding Modifier(token:0x68CA8EA).valueType (token:0x68CA8EC)

;	.proc.beg
; Line 339
	ldarg.0				; this$
	ldc.i.4		4		; i32 0x4
	add		
	ldind.i4	
	ret		
 .end ?category@error_condition@std@@$$FQBMABVerror_category@2@XZ ; std::error_condition::category
;	.proc.end.i4
.global	
	.bss
.local	$T62919,0
.local	,4
; Function compile flags: /Ogtpy
	.text
	.comdat	any, ??8error_condition@std@@$$FQBM_NABV01@@Z
.global	??8error_condition@std@@$$FQBM_NABV01@@Z	; std::error_condition::operator==
??8error_condition@std@@$$FQBM_NABV01@@Z:		; std::error_condition::operator==
;	.proc.def	D:I(II)

; Function Header:
; max stack depth = 3
; function size = 28 bytes
; local varsig tk = 0x11000052 
; Exception Information:
; 0 handlers, each consisting of filtered handlers

;	.formal.i4 1,"_Right$" SIG: Optional C Binding Modifier(token:0x68CA84D).ptr.Optional C Binding Modifier(token:0x68CA851).valueType (token:0x68CA853)
;	.formal.i4 0,"this$" SIG: Optional C Binding Modifier(token:0x68CA8E5).Optional C Binding Modifier(token:0x68CA8E7).ptr.Optional C Binding Modifier(token:0x68CA8EA).valueType (token:0x68CA8EC)

;	.proc.beg
; Line 360
	ldarg.0				; this$
	ldc.i.4		4		; i32 0x4
	add		
	ldind.i4	
	ldarg.1				; _Right$
	ldc.i.4		4		; i32 0x4
	add		
	ldind.i4	
	ceq		
	conv.u1		
	brfalse.s	$LN3@operator
	ldarg.0				; this$
	ldind.i4	
	ldarg.1				; _Right$
	ldind.i4	
	bne.un.s	$LN3@operator
	ldc.i.1		1		; i32 0x1
	stloc.0				
	br.s		$LN4@operator
$LN3@operator:
	ldc.i.0		0		; i32 0x0
	stloc.0				
$LN4@operator:
	ldloc.0				
	conv.u1		
	ret		
 .end ??8error_condition@std@@$$FQBM_NABV01@@Z		; std::error_condition::operator==
;	.proc.end.u1
; Function compile flags: /Ogtpy
	.text
	.comdat	any, ?default_error_condition@error_category@std@@$$FUBM?AVerror_condition@2@H@Z
.global	?default_error_condition@error_category@std@@$$FUBM?AVerror_condition@2@H@Z ; std::error_category::default_error_condition
?default_error_condition@error_category@std@@$$FUBM?AVerror_condition@2@H@Z: ; std::error_category::default_error_condition
;	.proc.def	D:I(III)

; Function Header:
; max stack depth = 2
; function size = 10 bytes
; local varsig tk = 0x0 
; Exception Information:
; 0 handlers, each consisting of filtered handlers

;	.formal.i4 0,"this$" SIG: Optional C Binding Modifier(token:0x68CB035).Optional C Binding Modifier(token:0x68CB037).ptr.Optional C Binding Modifier(token:0x68CB03A).valueType (token:0x68CB03C)
;	.formal.i4 2,"_Errval$" SIG: i4
;	.formal.i4 1,"__$ReturnUdt$" SIG: ptr.valueType (token:0x68CA7BE)

;	.proc.beg
; Line 384
	ldarg.1				; __$ReturnUdt$
	ldarg.2				; _Errval$
	stind.i4	
	ldarg.1				; __$ReturnUdt$
	ldc.i.4		4		; i32 0x4
	add		
	ldarg.0				; this$
	stind.i4	
	ldarg.1				; __$ReturnUdt$
	ret		
 .end ?default_error_condition@error_category@std@@$$FUBM?AVerror_condition@2@H@Z ; std::error_category::default_error_condition
;	.proc.end.i4
	.bss
.local	$T62970,0
.local	$SigTok$$$A8error_category@std@@BM?AVerror_condition@1@PAV21@H@Z,4
; Function compile flags: /Ogtpy
	.text
	.comdat	any, ?equivalent@error_category@std@@$$FUBM_NHABVerror_condition@2@@Z
.global	?equivalent@error_category@std@@$$FUBM_NHABVerror_condition@2@@Z ; std::error_category::equivalent
?equivalent@error_category@std@@$$FUBM_NHABVerror_condition@2@@Z: ; std::error_category::equivalent
;	.proc.def	D:I(III)

; Function Header:
; max stack depth = 5
; function size = 44 bytes
; local varsig tk = 0x11000090 
; Exception Information:
; 0 handlers, each consisting of filtered handlers

;	.formal.i4 2,"_Cond$" SIG: Optional C Binding Modifier(token:0x68CA84D).ptr.Optional C Binding Modifier(token:0x68CA851).valueType (token:0x68CA853)
;	.formal.i4 1,"_Errval$" SIG: i4
;	.formal.i4 0,"this$" SIG: Optional C Binding Modifier(token:0x68CB035).Optional C Binding Modifier(token:0x68CB037).ptr.Optional C Binding Modifier(token:0x68CB03A).valueType (token:0x68CB03C)
;	.local.i4 1,"$T62969" SIG: Optional C Binding Modifier(token:0x68CA8E5).Optional C Binding Modifier(token:0x68CA8E7).ptr.Optional C Binding Modifier(token:0x68CA8EA).valueType (token:0x68CA8EC)
;	.local.mb8   2,"$T26440" SIG: valueType (token:0x68CA72D)

;	.proc.beg
; Line 391
	ldarg.0				; this$
	ldloca.s	2		; $T26440
	ldarg.1				; _Errval$
	ldarg.0				; this$
	ldind.i4	
	ldc.i4.s	12		; i32 0xc
	add		
	ldind.i4	
	calli		D:I(III)
	stloc.1				; $T62969
	ldloc.1				; $T62969
	ldc.i.4		4		; i32 0x4
	add		
	ldind.i4	
	ldarg.2				; _Cond$
	ldc.i.4		4		; i32 0x4
	add		
	ldind.i4	
	ceq		
	conv.u1		
	brfalse.s	$LN5@equivalent
	ldloc.1				; $T62969
	ldind.i4	
	ldarg.2				; _Cond$
	ldind.i4	
	bne.un.s	$LN5@equivalent
	ldc.i.1		1		; i32 0x1
	stloc.0				
	br.s		$LN6@equivalent
$LN5@equivalent:
	ldc.i.0		0		; i32 0x0
	stloc.0				
$LN6@equivalent:
	ldloc.0				
	conv.u1		
	ret		
 .end ?equivalent@error_category@std@@$$FUBM_NHABVerror_condition@2@@Z ; std::error_category::equivalent
;	.proc.end.u1
.global	
	.bss
.local	$T62991,0
.local	,4
; Function compile flags: /Ogtpy
	.text
	.comdat	any, ?equivalent@error_category@std@@$$FUBM_NABVerror_code@2@H@Z
.global	?equivalent@error_category@std@@$$FUBM_NABVerror_code@2@H@Z ; std::error_category::equivalent
?equivalent@error_category@std@@$$FUBM_NABVerror_code@2@H@Z: ; std::error_category::equivalent
;	.proc.def	D:I(III)

; Function Header:
; max stack depth = 3
; function size = 24 bytes
; local varsig tk = 0x11000052 
; Exception Information:
; 0 handlers, each consisting of filtered handlers

;	.formal.i4 2,"_Errval$" SIG: i4
;	.formal.i4 1,"_Code$" SIG: Optional C Binding Modifier(token:0x68CAB55).ptr.Optional C Binding Modifier(token:0x68CAB59).valueType (token:0x68CAB5B)
;	.formal.i4 0,"this$" SIG: Optional C Binding Modifier(token:0x68CB035).Optional C Binding Modifier(token:0x68CB037).ptr.Optional C Binding Modifier(token:0x68CB03A).valueType (token:0x68CB03C)

;	.proc.beg
; Line 398
	ldarg.0				; this$
	ldarg.1				; _Code$
	ldc.i.4		4		; i32 0x4
	add		
	ldind.i4	
	ceq		
	conv.u1		
	brfalse.s	$LN3@equivalent@2
	ldarg.1				; _Code$
	ldind.i4	
	ldarg.2				; _Errval$
	bne.un.s	$LN3@equivalent@2
	ldc.i.1		1		; i32 0x1
	stloc.0				
	br.s		$LN4@equivalent@2
$LN3@equivalent@2:
	ldc.i.0		0		; i32 0x0
	stloc.0				
$LN4@equivalent@2:
	ldloc.0				
	conv.u1		
	ret		
 .end ?equivalent@error_category@std@@$$FUBM_NABVerror_code@2@H@Z ; std::error_category::equivalent
;	.proc.end.u1
.global	
	.bss
.local	,4
; Function compile flags: /Ogtpy
	.text
	.comdat	any, ??1ios_base@std@@$$FUAM@XZ
.global	??1ios_base@std@@$$FUAM@XZ			; std::ios_base::~ios_base
??1ios_base@std@@$$FUAM@XZ:				; std::ios_base::~ios_base
;	.proc.def	D:V(I)

; Function Header:
; max stack depth = 3
; function size = 16 bytes
; local varsig tk = 0x0 
; Exception Information:
; 0 handlers, each consisting of filtered handlers

;	.formal.i4 0,"this$" SIG: Optional C Binding Modifier(token:0x68C6AB1).Optional C Binding Modifier(token:0x68C6AB3).ptr.valueType (token:0x68C6AB6)

;	.proc.beg
; File c:\program files (x86)\microsoft visual studio 10.0\vc\include\xiosbase
; Line 540
	ldarg.0				; this$
	ldsflda		??_7ios_base@std@@6B@
	ldc.i.4		4		; i32 0x4
	add		
	stind.i4	
; Line 541
	ldarg.0				; this$
	call		?_Ios_base_dtor@ios_base@std@@$$FCMXPAV12@@Z
; Line 542
	ret		
 .end ??1ios_base@std@@$$FUAM@XZ			; std::ios_base::~ios_base
;	.proc.end.void
	.bss
.local	$T63001,0
; Function compile flags: /Ogtpy
	.text
	.comdat	any, ??_Eios_base@std@@$$FUAMPAXI@Z
.global	??_Eios_base@std@@$$FUAMPAXI@Z			; std::ios_base::`vector deleting destructor'
??_Eios_base@std@@$$FUAMPAXI@Z:				; std::ios_base::`vector deleting destructor'
;	.proc.def	D:I(II)

; Function Header:
; max stack depth = 4
; function size = 66 bytes
; local varsig tk = 0x11000093 
; Exception Information:
; 0 handlers, each consisting of filtered handlers

;	.formal.i4 0,"this$" SIG: Optional C Binding Modifier(token:0x68C6AB1).Optional C Binding Modifier(token:0x68C6AB3).ptr.valueType (token:0x68C6AB6)
;	.formal.u4 1,"__flags$" SIG: u4
;	.local.i4 0,"$T63000" SIG: Optional C Binding Modifier(token:0x68C6AB1).Optional C Binding Modifier(token:0x68C6AB3).ptr.valueType (token:0x68C6AB6)

;	.proc.beg
	ldarg.1				; __flags$
	ldc.i.2		2		; u32 0x2
	and		
	brfalse.s	$LN3@vector@9
	ldarg.0				; this$
	ldc.i.4		4		; i32 0x4
	sub		
	stloc.0				; $T63000
	ldarg.0				; this$
	ldc.i4.s	56		; u32 0x38
	ldloc.0				; $T63000
	ldind.i4	
	ldftn		??1ios_base@std@@$$FUAM@XZ
	call		??_M@$$FYMXPAXIHP6MX0@Z@Z
	ldarg.1				; __flags$
	ldc.i.1		1		; u32 0x1
	and		
	brfalse.s	$LN2@vector@9
	ldloc.0				; $T63000
	call		??_V@$$FYMXPAX@Z
$LN2@vector@9:
	ldloc.0				; $T63000
	ret		
$LN3@vector@9:
	ldarg.0				; this$
	ldsflda		??_7ios_base@std@@6B@
	ldc.i.4		4		; i32 0x4
	add		
	stind.i4	
	ldarg.0				; this$
	call		?_Ios_base_dtor@ios_base@std@@$$FCMXPAV12@@Z
	ldarg.1				; __flags$
	ldc.i.1		1		; u32 0x1
	and		
	brfalse.s	$LN1@vector@9
	ldarg.0				; this$
	call		??3@$$FYMXPAX@Z
$LN1@vector@9:
	ldarg.0				; this$
	ret		
 .end ??_Eios_base@std@@$$FUAMPAXI@Z			; std::ios_base::`vector deleting destructor'
;	.proc.end.i4
.global	??_C@_0BC@MOGJFHKK@tr1?3?3bad_weak_ptr?$AA@	; `string'
.global	
	.bss
.local	,4
; File c:\program files (x86)\microsoft visual studio 10.0\vc\include\memory
	.rdata
	.comdat	any, ??_C@_0BC@MOGJFHKK@tr1?3?3bad_weak_ptr?$AA@

??_C@_0BC@MOGJFHKK@tr1?3?3bad_weak_ptr?$AA@:		; `string'
	.ascii	"tr1::bad_weak_ptr\000"
; Function compile flags: /Ogtpy
	.text
	.comdat	any, ?what@bad_weak_ptr@tr1@std@@$$FUBMPBDXZ
.global	?what@bad_weak_ptr@tr1@std@@$$FUBMPBDXZ		; std::tr1::bad_weak_ptr::what
?what@bad_weak_ptr@tr1@std@@$$FUBMPBDXZ:		; std::tr1::bad_weak_ptr::what
;	.proc.def	D:I(I)

; Function Header:
; max stack depth = 1
; function size = 6 bytes
; local varsig tk = 0x0 
; Exception Information:
; 0 handlers, each consisting of filtered handlers


;	.proc.beg
; Line 1015
	ldsflda		??_C@_0BC@MOGJFHKK@tr1?3?3bad_weak_ptr?$AA@
	ret		
 .end ?what@bad_weak_ptr@tr1@std@@$$FUBMPBDXZ		; std::tr1::bad_weak_ptr::what
;	.proc.end.i4
.global	
	.bss
.local	,4
; Function compile flags: /Ogtpy
	.text
	.comdat	any, ??1_Ref_count_base@tr1@std@@$$FUAM@XZ
.global	??1_Ref_count_base@tr1@std@@$$FUAM@XZ		; std::tr1::_Ref_count_base::~_Ref_count_base
??1_Ref_count_base@tr1@std@@$$FUAM@XZ:			; std::tr1::_Ref_count_base::~_Ref_count_base
;	.proc.def	D:V(I)

; Function Header:
; max stack depth = 3
; function size = 10 bytes
; local varsig tk = 0x0 
; Exception Information:
; 0 handlers, each consisting of filtered handlers

;	.formal.i4 0,"this$" SIG: Optional C Binding Modifier(token:0x68BF34D).Optional C Binding Modifier(token:0x68BF34F).ptr.valueType (token:0x68BF352)

;	.proc.beg
; Line 1037
	ldarg.0				; this$
	ldsflda		??_7_Ref_count_base@tr1@std@@6B@
	ldc.i.4		4		; i32 0x4
	add		
	stind.i4	
; Line 1038
	ret		
 .end ??1_Ref_count_base@tr1@std@@$$FUAM@XZ		; std::tr1::_Ref_count_base::~_Ref_count_base
;	.proc.end.void
.global	
.global	
	.bss
.local	,4
.local	,4
; Function compile flags: /Ogtpy
	.text
	.comdat	any, ?_Get_deleter@_Ref_count_base@tr1@std@@$$FUBMPAXABVtype_info@@@Z
.global	?_Get_deleter@_Ref_count_base@tr1@std@@$$FUBMPAXABVtype_info@@@Z ; std::tr1::_Ref_count_base::_Get_deleter
?_Get_deleter@_Ref_count_base@tr1@std@@$$FUBMPAXABVtype_info@@@Z: ; std::tr1::_Ref_count_base::_Get_deleter
;	.proc.def	D:I(II)

; Function Header:
; max stack depth = 1
; function size = 2 bytes
; local varsig tk = 0x0 
; Exception Information:
; 0 handlers, each consisting of filtered handlers


;	.proc.beg
; Line 1089
	ldc.i.0		0		; i32 0x0
	ret		
 .end ?_Get_deleter@_Ref_count_base@tr1@std@@$$FUBMPAXABVtype_info@@@Z ; std::tr1::_Ref_count_base::_Get_deleter
;	.proc.end.i4
	.bss
.local	$T63018,0
; Function compile flags: /Ogtpy
	.text
	.comdat	any, ??_E_Ref_count_base@tr1@std@@$$FUAMPAXI@Z
.global	??_E_Ref_count_base@tr1@std@@$$FUAMPAXI@Z	; std::tr1::_Ref_count_base::`vector deleting destructor'
??_E_Ref_count_base@tr1@std@@$$FUAMPAXI@Z:		; std::tr1::_Ref_count_base::`vector deleting destructor'
;	.proc.def	D:I(II)

; Function Header:
; max stack depth = 4
; function size = 60 bytes
; local varsig tk = 0x11000098 
; Exception Information:
; 0 handlers, each consisting of filtered handlers

;	.formal.i4 0,"this$" SIG: Optional C Binding Modifier(token:0x68BF34D).Optional C Binding Modifier(token:0x68BF34F).ptr.valueType (token:0x68BF352)
;	.formal.u4 1,"__flags$" SIG: u4
;	.local.i4 0,"$T63017" SIG: Optional C Binding Modifier(token:0x68BF34D).Optional C Binding Modifier(token:0x68BF34F).ptr.valueType (token:0x68BF352)

;	.proc.beg
	ldarg.1				; __flags$
	ldc.i.2		2		; u32 0x2
	and		
	brfalse.s	$LN3@vector@10
	ldarg.0				; this$
	ldc.i.4		4		; i32 0x4
	sub		
	stloc.0				; $T63017
	ldarg.0				; this$
	ldc.i4.s	12		; u32 0xc
	ldloc.0				; $T63017
	ldind.i4	
	ldftn		??1_Ref_count_base@tr1@std@@$$FUAM@XZ
	call		??_M@$$FYMXPAXIHP6MX0@Z@Z
	ldarg.1				; __flags$
	ldc.i.1		1		; u32 0x1
	and		
	brfalse.s	$LN2@vector@10
	ldloc.0				; $T63017
	call		??_V@$$FYMXPAX@Z
$LN2@vector@10:
	ldloc.0				; $T63017
	ret		
$LN3@vector@10:
	ldarg.0				; this$
	ldsflda		??_7_Ref_count_base@tr1@std@@6B@
	ldc.i.4		4		; i32 0x4
	add		
	stind.i4	
	ldarg.1				; __flags$
	ldc.i.1		1		; u32 0x1
	and		
	brfalse.s	$LN1@vector@10
	ldarg.0				; this$
	call		??3@$$FYMXPAX@Z
$LN1@vector@10:
	ldarg.0				; this$
	ret		
 .end ??_E_Ref_count_base@tr1@std@@$$FUAMPAXI@Z		; std::tr1::_Ref_count_base::`vector deleting destructor'
;	.proc.end.i4
; Function compile flags: /Ogtpy
	.text
	.comdat	noduplicate, ?func_setFormat@@$$FYMX_N@Z
.global	?func_setFormat@@$$FYMX_N@Z			; func_setFormat
?func_setFormat@@$$FYMX_N@Z:				; func_setFormat
;	.proc.def	D:V(I)

; Function Header:
; max stack depth = 1
; function size = 7 bytes
; local varsig tk = 0x0 
; Exception Information:
; 0 handlers, each consisting of filtered handlers

;	.formal.u1 0,"b$" SIG: bool

;	.proc.beg
; File c:\users\ruli\documents\visual studio 2010\projects\hitungan\hitungan\hitungan.h
; Line 28
	ldarg.0				; b$
	stsfld		?bFormat@@$$Q3_NA
; Line 29
	ret		
 .end ?func_setFormat@@$$FYMX_N@Z			; func_setFormat
;	.proc.end.void
; Function compile flags: /Ogtpy
	.text
	.comdat	noduplicate, ?func_setTrim@@$$FYMX_N@Z
.global	?func_setTrim@@$$FYMX_N@Z			; func_setTrim
?func_setTrim@@$$FYMX_N@Z:				; func_setTrim
;	.proc.def	D:V(I)

; Function Header:
; max stack depth = 1
; function size = 7 bytes
; local varsig tk = 0x0 
; Exception Information:
; 0 handlers, each consisting of filtered handlers

;	.formal.u1 0,"b$" SIG: bool

;	.proc.beg
; Line 32
	ldarg.0				; b$
	stsfld		?bTrim@@$$Q3_NA
; Line 33
	ret		
 .end ?func_setTrim@@$$FYMX_N@Z				; func_setTrim
;	.proc.end.void
; Function compile flags: /Ogtpy
	.text
	.comdat	noduplicate, ?func_setNMode@@$$FYMXH@Z
.global	?func_setNMode@@$$FYMXH@Z			; func_setNMode
?func_setNMode@@$$FYMXH@Z:				; func_setNMode
;	.proc.def	D:V(I)

; Function Header:
; max stack depth = 1
; function size = 7 bytes
; local varsig tk = 0x0 
; Exception Information:
; 0 handlers, each consisting of filtered handlers

;	.formal.i4 0,"a$" SIG: i4

;	.proc.beg
; Line 36
	ldarg.0				; a$
	stsfld		?bMode@@$$Q3HA
; Line 37
	ret		
 .end ?func_setNMode@@$$FYMXH@Z				; func_setNMode
;	.proc.end.void
; Function compile flags: /Ogtpy
	.text
	.comdat	noduplicate, ?func_getNMode@@$$FYMHXZ
.global	?func_getNMode@@$$FYMHXZ			; func_getNMode
?func_getNMode@@$$FYMHXZ:				; func_getNMode
;	.proc.def	D:I()

; Function Header:
; max stack depth = 1
; function size = 6 bytes
; local varsig tk = 0x0 
; Exception Information:
; 0 handlers, each consisting of filtered handlers


;	.proc.beg
; Line 40
	ldsfld		?bMode@@$$Q3HA
	ret		
 .end ?func_getNMode@@$$FYMHXZ				; func_getNMode
;	.proc.end.i4
.global	
	.bss
.local	$T63032,0
.local	$StringLiteralTok$??_C@_13JOFGPIOO@?$AA?4?$AA?$AA@,4
.local	$StringLiteralTok$??_C@_13DEFPDAGF@?$AA?0?$AA?$AA@,4
.local	$StringLiteralTok$??_C@_11LOCGONAA@?$AA?$AA@,4
.local	,4
; Function compile flags: /Ogtpy
	.text
	.comdat	noduplicate, ?func_convFormat@@$$FYMP$AAVString@System@@P$AAV12@@Z
.global	?func_convFormat@@$$FYMP$AAVString@System@@P$AAV12@@Z ; func_convFormat
?func_convFormat@@$$FYMP$AAVString@System@@P$AAV12@@Z:	; func_convFormat
;	.proc.def	D:P(P)

; Function Header:
; max stack depth = 3
; function size = 115 bytes
; local varsig tk = 0x1100009A 
; Exception Information:
; 0 handlers, each consisting of filtered handlers

;	.formal.mptr 0,"sI1$" SIG: string
;	.local.mptr 2,"sI2$" SIG: string
;	.local.i4 1,"i$" SIG: i4
;	.local.mptr 0,"sTemp$" SIG: string
;	.local.i4 3,"n$" SIG: i4

;	.proc.beg
; Line 47
	ldarg.0				; sI1$
	call		?get@Length@String@System@@$$FQ$AAMHXZ
	stloc.3				; n$
; Line 48
	ldstr		$StringLiteralTok$??_C@_11LOCGONAA@?$AA?$AA@
	stloc.0				; sTemp$
; Line 49
	ldc.i.0		0		; i32 0x0
	stloc.1				; i$
	ldc.i.0		0		; i32 0x0
	ldloc.3				; n$
	bge.s		$LN6@func_convF
$LL8@func_convF:
; Line 50
	ldarg.0				; sI1$
	ldloc.1				; i$
	ldc.i.1		1		; i32 0x1
	call		?Substring@String@System@@$$FQ$AAMP$AAV12@HH@Z
	stloc.2				; sI2$
; Line 51
	ldloc.2				; sI2$
	ldstr		$StringLiteralTok$??_C@_13DEFPDAGF@?$AA?0?$AA?$AA@
	callvirt	?Equals@String@System@@$$FU$AAM_NP$AAV12@@Z
	brfalse.s	$LN5@func_convF
; Line 52
	ldloc.0				; sTemp$
	ldstr		$StringLiteralTok$??_C@_13JOFGPIOO@?$AA?4?$AA?$AA@
	call		?Concat@String@System@@$$FSMP$AAV12@P$AAV12@0@Z
	stloc.0				; sTemp$
	br.s		$LN7@func_convF
$LN5@func_convF:
; Line 53
	ldloc.2				; sI2$
	ldstr		$StringLiteralTok$??_C@_13JOFGPIOO@?$AA?4?$AA?$AA@
	callvirt	?Equals@String@System@@$$FU$AAM_NP$AAV12@@Z
	brfalse.s	$LN3@func_convF
; Line 54
	ldloc.0				; sTemp$
	ldstr		$StringLiteralTok$??_C@_13DEFPDAGF@?$AA?0?$AA?$AA@
	call		?Concat@String@System@@$$FSMP$AAV12@P$AAV12@0@Z
	stloc.0				; sTemp$
; Line 55
	br.s		$LN7@func_convF
$LN3@func_convF:
; Line 56
	ldloc.0				; sTemp$
	ldloc.2				; sI2$
	call		?Concat@String@System@@$$FSMP$AAV12@P$AAV12@0@Z
	stloc.0				; sTemp$
$LN7@func_convF:
; Line 49
	ldloc.1				; i$
	ldc.i.1		1		; i32 0x1
	add		
	stloc.1				; i$
	ldloc.1				; i$
	ldloc.3				; n$
	blt.s		$LL8@func_convF
$LN6@func_convF:
; Line 58
	ldloc.0				; sTemp$
	ldstr		$StringLiteralTok$??_C@_11LOCGONAA@?$AA?$AA@
	call		??8String@System@@$$FSM_NP$AAV01@0@Z
	brfalse.s	$LN1@func_convF
; Line 59
	ldarg.0				; sI1$
	stloc.0				; sTemp$
$LN1@func_convF:
; Line 60
	ldloc.0				; sTemp$
	ret		
 .end ?func_convFormat@@$$FYMP$AAVString@System@@P$AAV12@@Z ; func_convFormat
;	.proc.end.mptr
	.bss
.local	$T63037,0
; Function compile flags: /Ogtpy
	.text
	.comdat	noduplicate, ?func_initArray@@$$FYMXHH@Z
.global	?func_initArray@@$$FYMXHH@Z			; func_initArray
?func_initArray@@$$FYMXHH@Z:				; func_initArray
;	.proc.def	D:V(II)

; Function Header:
; max stack depth = 2
; function size = 48 bytes
; local varsig tk = 0x11000052 
; Exception Information:
; 0 handlers, each consisting of filtered handlers

;	.formal.i4 0,"a$" SIG: i4
;	.formal.i4 1,"b$" SIG: i4
;	.local.i4 0,"i$" SIG: i4

;	.proc.beg
; Line 65
	ldc.i.0		0		; i32 0x0
	stloc.0				; i$
	ldc.i.0		0		; i32 0x0
	ldarg.1				; b$
	bge.s		$LN1@func_initA
$LL3@func_initA:
; Line 66
	ldloc.0				; i$
	ldc.i.4		4		; i32 0x4
	mul		
	ldsflda		?ara@@$$Q3PAHA
	add		
	ldarg.0				; a$
	stind.i4	
; Line 67
	ldloc.0				; i$
	ldc.i.4		4		; i32 0x4
	mul		
	ldsflda		?arb@@$$Q3PAHA
	add		
	ldarg.0				; a$
	stind.i4	
; Line 68
	ldloc.0				; i$
	ldc.i.4		4		; i32 0x4
	mul		
	ldsflda		?arc@@$$Q3PAHA
	add		
	ldarg.0				; a$
	stind.i4	
; Line 65
	ldloc.0				; i$
	ldc.i.1		1		; i32 0x1
	add		
	stloc.0				; i$
	ldloc.0				; i$
	ldarg.1				; b$
	blt.s		$LL3@func_initA
$LN1@func_initA:
; Line 70
	ret		
 .end ?func_initArray@@$$FYMXHH@Z			; func_initArray
;	.proc.end.void
	.bss
.local	$StringLiteralTok$??_C@_13IMODFHAA@?$AA?9?$AA?$AA@,4
; Function compile flags: /Ogtpy
	.text
	.comdat	noduplicate, ?func_checkNeg@@$$FYM_NP$AAVString@System@@@Z
.global	?func_checkNeg@@$$FYM_NP$AAVString@System@@@Z	; func_checkNeg
?func_checkNeg@@$$FYM_NP$AAVString@System@@@Z:		; func_checkNeg
;	.proc.def	D:I(P)

; Function Header:
; max stack depth = 2
; function size = 19 bytes
; local varsig tk = 0x0 
; Exception Information:
; 0 handlers, each consisting of filtered handlers

;	.formal.mptr 0,"sII1$" SIG: string

;	.proc.beg
; Line 74
	ldarg.0				; sII1$
	ldstr		$StringLiteralTok$??_C@_13IMODFHAA@?$AA?9?$AA?$AA@
	call		?StartsWith@String@System@@$$FQ$AAM_NP$AAV12@@Z
	ldc.i.0		0		; u8 0x0
	bne.un.s	$LN5@func_check
	ldc.i.0		0		; u8 0x0
	br.s		$LN6@func_check
$LN5@func_check:
	ldc.i.1		1		; u8 0x1
$LN6@func_check:
	ret		
 .end ?func_checkNeg@@$$FYM_NP$AAVString@System@@@Z	; func_checkNeg
;	.proc.end.u1
; Function compile flags: /Ogtpy
	.text
	.comdat	noduplicate, ?func_checkFloat@@$$FYM_NP$AAVString@System@@@Z
.global	?func_checkFloat@@$$FYM_NP$AAVString@System@@@Z	; func_checkFloat
?func_checkFloat@@$$FYM_NP$AAVString@System@@@Z:	; func_checkFloat
;	.proc.def	D:I(P)

; Function Header:
; max stack depth = 2
; function size = 12 bytes
; local varsig tk = 0x0 
; Exception Information:
; 0 handlers, each consisting of filtered handlers

;	.formal.mptr 0,"sII1$" SIG: string

;	.proc.beg
; Line 83
	ldarg.0				; sII1$
	ldstr		$StringLiteralTok$??_C@_13JOFGPIOO@?$AA?4?$AA?$AA@
	call		?Contains@String@System@@$$FQ$AAM_NP$AAV12@@Z
	ret		
 .end ?func_checkFloat@@$$FYM_NP$AAVString@System@@@Z	; func_checkFloat
;	.proc.end.u1
	.bss
.local	$T63050,0
.local	$StringLiteralTok$??_C@_13HOIJIPNN@?$AA?5?$AA?$AA@,4
.local	$StringLiteralTok$??_C@_13COJANIEC@?$AA0?$AA?$AA@,4
; Function compile flags: /Ogtpy
	.text
	.comdat	noduplicate, ?func_trim@@$$FYMP$AAVString@System@@P$AAV12@@Z
.global	?func_trim@@$$FYMP$AAVString@System@@P$AAV12@@Z	; func_trim
?func_trim@@$$FYMP$AAVString@System@@P$AAV12@@Z:	; func_trim
;	.proc.def	D:P(P)

; Function Header:
; max stack depth = 2
; function size = 99 bytes
; local varsig tk = 0x1100009B 
; Exception Information:
; 0 handlers, each consisting of filtered handlers

;	.formal.mptr 0,"sII1$" SIG: string
;	.local.mptr 1,"sII1$1$" SIG: string
;	.local.u1 2,"bneg$" SIG: bool
;	.local.mptr 0,"sII2$" SIG: string

;	.proc.beg
; Line 93
	ldarg.0				; sII1$
	ldstr		$StringLiteralTok$??_C@_13IMODFHAA@?$AA?9?$AA?$AA@
	call		?StartsWith@String@System@@$$FQ$AAM_NP$AAV12@@Z
	brfalse.s	$LN9@func_trim
; Line 94
	ldarg.0				; sII1$
	ldc.i.1		1		; i32 0x1
	call		?Substring@String@System@@$$FQ$AAMP$AAV12@H@Z
	stloc.0				; sII2$
; Line 95
	ldc.i.1		1		; u8 0x1
	stloc.2				; bneg$
; Line 97
	br.s		$LN8@func_trim
$LN9@func_trim:
; Line 98
	ldarg.0				; sII1$
	stloc.0				; sII2$
; Line 99
	ldc.i.0		0		; u8 0x0
	stloc.2				; bneg$
$LN8@func_trim:
; Line 101
	ldloc.0				; sII2$
	stloc.1				; sII1$1$
; Line 102
	ldloc.0				; sII2$
	call		?get@Length@String@System@@$$FQ$AAMHXZ
	ldc.i.1		1		; i32 0x1
	blt.s		$LN7@func_trim
$LL6@func_trim:
; Line 108
	ldloc.0				; sII2$
	ldstr		$StringLiteralTok$??_C@_13COJANIEC@?$AA0?$AA?$AA@
	call		?StartsWith@String@System@@$$FQ$AAM_NP$AAV12@@Z
	brtrue.s	$LN3@func_trim
	ldloc.0				; sII2$
	ldstr		$StringLiteralTok$??_C@_13HOIJIPNN@?$AA?5?$AA?$AA@
	call		?StartsWith@String@System@@$$FQ$AAM_NP$AAV12@@Z
	brfalse.s	$LN14@func_trim
$LN3@func_trim:
; Line 111
	ldloc.0				; sII2$
	stloc.1				; sII1$1$
; Line 112
	ldloc.0				; sII2$
	ldc.i.1		1		; i32 0x1
	call		?Substring@String@System@@$$FQ$AAMP$AAV12@H@Z
	stloc.0				; sII2$
; Line 107
	br.s		$LL6@func_trim
$LN14@func_trim:
; Line 119
	ldloc.2				; bneg$
	brfalse.s	$LN1@func_trim
; Line 120
	ldstr		$StringLiteralTok$??_C@_13IMODFHAA@?$AA?9?$AA?$AA@
	stloc.0				; sII2$
; Line 121
	ldloc.0				; sII2$
	ldloc.1				; sII1$1$
	call		?Concat@String@System@@$$FSMP$AAV12@P$AAV12@0@Z
	stloc.1				; sII1$1$
$LN1@func_trim:
; Line 123
	ldloc.1				; sII1$1$
	ret		
$LN7@func_trim:
; Line 125
	ldloc.0				; sII2$
	ret		
 .end ?func_trim@@$$FYMP$AAVString@System@@P$AAV12@@Z	; func_trim
;	.proc.end.mptr
	.bss
.local	$T63062,0
; Function compile flags: /Ogtpy
	.text
	.comdat	noduplicate, ?func_rtrim@@$$FYMP$AAVString@System@@P$AAV12@@Z
.global	?func_rtrim@@$$FYMP$AAVString@System@@P$AAV12@@Z ; func_rtrim
?func_rtrim@@$$FYMP$AAVString@System@@P$AAV12@@Z:	; func_rtrim
;	.proc.def	D:P(P)

; Function Header:
; max stack depth = 4
; function size = 252 bytes
; local varsig tk = 0x1100009C 
; Exception Information:
; 0 handlers, each consisting of filtered handlers

;	.formal.mptr 0,"sI1$" SIG: string
;	.local.u1 3,"flag$" SIG: bool
;	.local.i4 2,"k$" SIG: i4
;	.local.i4 1,"i$" SIG: i4
;	.local.i4 4,"n$" SIG: i4
;	.local.mptr 0,"sI3$" SIG: string

;	.proc.beg
; Line 135
	ldarg.0				; sI1$
	call		?get@Length@String@System@@$$FQ$AAMHXZ
	ldc.i.0		0		; i32 0x0
	ble		$LN14@func_rtrim
; Line 136
	ldarg.0				; sI1$
	stloc.0				; sI3$
; Line 138
	ldarg.0				; sI1$
	call		?get@Length@String@System@@$$FQ$AAMHXZ
	pop		
; Line 140
	ldarg.0				; sI1$
	ldstr		$StringLiteralTok$??_C@_13JOFGPIOO@?$AA?4?$AA?$AA@
	call		?Contains@String@System@@$$FQ$AAM_NP$AAV12@@Z
	brfalse.s	$LN11@func_rtrim
; Line 141
	ldarg.0				; sI1$
	call		?get@Length@String@System@@$$FQ$AAMHXZ
	ldc.i.0		0		; i32 0x0
	ble.s		$LN11@func_rtrim
$LL12@func_rtrim:
	ldloc.0				; sI3$
	ldstr		$StringLiteralTok$??_C@_13COJANIEC@?$AA0?$AA?$AA@
	call		?EndsWith@String@System@@$$FQ$AAM_NP$AAV12@@Z
	brfalse.s	$LN11@func_rtrim
; Line 142
	ldloc.0				; sI3$
	ldc.i.0		0		; i32 0x0
	ldloc.0				; sI3$
	call		?get@Length@String@System@@$$FQ$AAMHXZ
	ldc.i.1		1		; i32 0x1
	sub		
	call		?Substring@String@System@@$$FQ$AAMP$AAV12@HH@Z
	stloc.0				; sI3$
; Line 141
	ldloc.0				; sI3$
	call		?get@Length@String@System@@$$FQ$AAMHXZ
	ldc.i.0		0		; i32 0x0
	bgt.s		$LL12@func_rtrim
$LN11@func_rtrim:
; Line 145
	ldloc.0				; sI3$
	call		?get@Length@String@System@@$$FQ$AAMHXZ
	stloc.s		4		; n$
; Line 146
	ldc.i.0		0		; i32 0x0
	stloc.1				; i$
; Line 147
	ldc.i.0		0		; i32 0x0
	stloc.2				; k$
; Line 148
	ldc.i.1		1		; u8 0x1
	stloc.3				; flag$
; Line 149
	ldloc.0				; sI3$
	call		?get@Length@String@System@@$$FQ$AAMHXZ
	ldc.i.0		0		; i32 0x0
	ble		$LN2@func_rtrim
$LL9@func_rtrim:
; Line 151
	ldloc.1				; i$
	ldloc.0				; sI3$
	call		?get@Length@String@System@@$$FQ$AAMHXZ
	bge.s		$LN7@func_rtrim
	ldloc.0				; sI3$
	ldloc.1				; i$
	ldc.i.1		1		; i32 0x1
	call		?Substring@String@System@@$$FQ$AAMP$AAV12@HH@Z
	ldstr		$StringLiteralTok$??_C@_13COJANIEC@?$AA0?$AA?$AA@
	callvirt	?Equals@String@System@@$$FU$AAM_NP$AAV12@@Z
	brfalse.s	$LN7@func_rtrim
; Line 152
	ldloc.2				; k$
	ldc.i.1		1		; i32 0x1
	add		
	stloc.2				; k$
; Line 154
	br.s		$LN6@func_rtrim
$LN7@func_rtrim:
; Line 155
	ldc.i.0		0		; u8 0x0
	stloc.3				; flag$
$LN6@func_rtrim:
; Line 157
	ldloc.1				; i$
	ldloc.0				; sI3$
	call		?get@Length@String@System@@$$FQ$AAMHXZ
	bge.s		$LN5@func_rtrim
; Line 158
	ldloc.1				; i$
	ldc.i.1		1		; i32 0x1
	add		
	stloc.1				; i$
; Line 150
	ldloc.3				; flag$
	ldc.i.1		1		; u8 0x1
	beq.s		$LL9@func_rtrim
$LN5@func_rtrim:
; Line 165
	ldloc.0				; sI3$
	ldloc.2				; k$
	ldloc.s		4		; n$
	ldloc.2				; k$
	sub		
	call		?Substring@String@System@@$$FQ$AAMP$AAV12@HH@Z
	stloc.0				; sI3$
; Line 166
	ldloc.0				; sI3$
	ldstr		$StringLiteralTok$??_C@_13JOFGPIOO@?$AA?4?$AA?$AA@
	call		?StartsWith@String@System@@$$FQ$AAM_NP$AAV12@@Z
	brfalse.s	$LN3@func_rtrim
; Line 167
	ldstr		$StringLiteralTok$??_C@_13COJANIEC@?$AA0?$AA?$AA@
	ldloc.0				; sI3$
	call		?Concat@String@System@@$$FSMP$AAV12@P$AAV12@0@Z
	stloc.0				; sI3$
$LN3@func_rtrim:
; Line 170
	ldloc.0				; sI3$
	ldstr		$StringLiteralTok$??_C@_13JOFGPIOO@?$AA?4?$AA?$AA@
	call		?EndsWith@String@System@@$$FQ$AAM_NP$AAV12@@Z
	brfalse.s	$LN2@func_rtrim
; Line 171
	ldloc.0				; sI3$
	ldc.i.0		0		; i32 0x0
	ldloc.0				; sI3$
	call		?get@Length@String@System@@$$FQ$AAMHXZ
	ldc.i.1		1		; i32 0x1
	sub		
	call		?Substring@String@System@@$$FQ$AAMP$AAV12@HH@Z
	stloc.0				; sI3$
$LN2@func_rtrim:
; Line 174
	ldloc.0				; sI3$
	starg.s		0		; sI1$
$LN14@func_rtrim:
; Line 176
	ldarg.0				; sI1$
	ldstr		$StringLiteralTok$??_C@_11LOCGONAA@?$AA?$AA@
	callvirt	?Equals@String@System@@$$FU$AAM_NP$AAV12@@Z
	brfalse.s	$LN1@func_rtrim
; Line 177
	ldstr		$StringLiteralTok$??_C@_13COJANIEC@?$AA0?$AA?$AA@
	starg.s		0		; sI1$
$LN1@func_rtrim:
; Line 178
	ldarg.0				; sI1$
	ret		
 .end ?func_rtrim@@$$FYMP$AAVString@System@@P$AAV12@@Z	; func_rtrim
;	.proc.end.mptr
	.bss
.local	$T63071,0
; Function compile flags: /Ogtpy
	.text
	.comdat	noduplicate, ?func_rtrim2@@$$FYMP$AAVString@System@@P$AAV12@@Z
.global	?func_rtrim2@@$$FYMP$AAVString@System@@P$AAV12@@Z ; func_rtrim2
?func_rtrim2@@$$FYMP$AAVString@System@@P$AAV12@@Z:	; func_rtrim2
;	.proc.def	D:P(P)

; Function Header:
; max stack depth = 4
; function size = 255 bytes
; local varsig tk = 0x1100009C 
; Exception Information:
; 0 handlers, each consisting of filtered handlers

;	.formal.mptr 0,"sI1$" SIG: string
;	.local.u1 3,"flag$" SIG: bool
;	.local.i4 1,"k$" SIG: i4
;	.local.i4 2,"i$" SIG: i4
;	.local.i4 4,"n$" SIG: i4
;	.local.mptr 0,"sI3$" SIG: string

;	.proc.beg
; Line 188
	ldarg.0				; sI1$
	ldstr		$StringLiteralTok$??_C@_13COJANIEC@?$AA0?$AA?$AA@
	callvirt	?Equals@String@System@@$$FU$AAM_NP$AAV12@@Z
	brfalse.s	$LN15@func_rtrim@2
; Line 189
	ldstr		$StringLiteralTok$??_C@_13COJANIEC@?$AA0?$AA?$AA@
	ret		
$LN15@func_rtrim@2:
; Line 190
	ldarg.0				; sI1$
	call		?get@Length@String@System@@$$FQ$AAMHXZ
	ldc.i.0		0		; i32 0x0
	ble		$LN14@func_rtrim@2
; Line 191
	ldarg.0				; sI1$
	stloc.0				; sI3$
; Line 193
	ldarg.0				; sI1$
	call		?get@Length@String@System@@$$FQ$AAMHXZ
	pop		
; Line 195
	ldarg.0				; sI1$
	ldstr		$StringLiteralTok$??_C@_13COJANIEC@?$AA0?$AA?$AA@
	call		?EndsWith@String@System@@$$FQ$AAM_NP$AAV12@@Z
	brfalse.s	$LN12@func_rtrim@2
$LL13@func_rtrim@2:
; Line 196
	ldloc.0				; sI3$
	ldc.i.0		0		; i32 0x0
	ldloc.0				; sI3$
	call		?get@Length@String@System@@$$FQ$AAMHXZ
	ldc.i.1		1		; i32 0x1
	sub		
	call		?Substring@String@System@@$$FQ$AAMP$AAV12@HH@Z
	stloc.0				; sI3$
; Line 195
	ldloc.0				; sI3$
	ldstr		$StringLiteralTok$??_C@_13COJANIEC@?$AA0?$AA?$AA@
	call		?EndsWith@String@System@@$$FQ$AAM_NP$AAV12@@Z
	brtrue.s	$LL13@func_rtrim@2
$LN12@func_rtrim@2:
; Line 198
	ldloc.0				; sI3$
	call		?get@Length@String@System@@$$FQ$AAMHXZ
	stloc.s		4		; n$
; Line 199
	ldc.i.0		0		; i32 0x0
	stloc.2				; i$
; Line 200
	ldc.i.0		0		; i32 0x0
	stloc.1				; k$
; Line 201
	ldc.i.1		1		; u8 0x1
	stloc.3				; flag$
; Line 202
	ldloc.0				; sI3$
	ldstr		$StringLiteralTok$??_C@_11LOCGONAA@?$AA?$AA@
	callvirt	?Equals@String@System@@$$FU$AAM_NP$AAV12@@Z
	brtrue.s	$LN11@func_rtrim@2
$LL10@func_rtrim@2:
; Line 204
	ldloc.0				; sI3$
	ldloc.2				; i$
	ldc.i.1		1		; i32 0x1
	call		?Substring@String@System@@$$FQ$AAMP$AAV12@HH@Z
	ldstr		$StringLiteralTok$??_C@_13COJANIEC@?$AA0?$AA?$AA@
	callvirt	?Equals@String@System@@$$FU$AAM_NP$AAV12@@Z
	brfalse.s	$LN8@func_rtrim@2
; Line 205
	ldloc.1				; k$
	ldc.i.1		1		; i32 0x1
	add		
	stloc.1				; k$
; Line 207
	br.s		$LN7@func_rtrim@2
$LN8@func_rtrim@2:
; Line 208
	ldc.i.0		0		; u8 0x0
	stloc.3				; flag$
$LN7@func_rtrim@2:
; Line 210
	ldloc.2				; i$
	ldloc.0				; sI3$
	call		?get@Length@String@System@@$$FQ$AAMHXZ
	ldc.i.1		1		; i32 0x1
	sub		
	bge.s		$LN6@func_rtrim@2
; Line 211
	ldloc.2				; i$
	ldc.i.1		1		; i32 0x1
	add		
	stloc.2				; i$
; Line 203
	ldloc.3				; flag$
	ldc.i.1		1		; u8 0x1
	beq.s		$LL10@func_rtrim@2
$LN6@func_rtrim@2:
; Line 218
	ldloc.0				; sI3$
	ldloc.1				; k$
	ldloc.s		4		; n$
	ldloc.1				; k$
	sub		
	call		?Substring@String@System@@$$FQ$AAMP$AAV12@HH@Z
	stloc.0				; sI3$
; Line 219
	ldloc.0				; sI3$
	ldstr		$StringLiteralTok$??_C@_13JOFGPIOO@?$AA?4?$AA?$AA@
	call		?StartsWith@String@System@@$$FQ$AAM_NP$AAV12@@Z
	brfalse.s	$LN4@func_rtrim@2
; Line 220
	ldstr		$StringLiteralTok$??_C@_13COJANIEC@?$AA0?$AA?$AA@
	ldloc.0				; sI3$
